ARM GAS  /tmp/ccLwwf6o.s 			page 1


   1              		.syntax unified
   2              		.cpu cortex-m0
   3              		.fpu softvfp
   4              		.eabi_attribute 20, 1	@ Tag_ABI_FP_denormal
   5              		.eabi_attribute 21, 1	@ Tag_ABI_FP_exceptions
   6              		.eabi_attribute 23, 3	@ Tag_ABI_FP_number_model
   7              		.eabi_attribute 24, 1	@ Tag_ABI_align8_needed
   8              		.eabi_attribute 25, 1	@ Tag_ABI_align8_preserved
   9              		.eabi_attribute 26, 1	@ Tag_ABI_enum_size
  10              		.eabi_attribute 30, 6	@ Tag_ABI_optimization_goals
  11              		.eabi_attribute 34, 0	@ Tag_CPU_unaligned_access
  12              		.eabi_attribute 18, 4	@ Tag_ABI_PCS_wchar_t
  13              		.file	"main.c"
  14              	@ GNU C11 (GNU Tools for ARM Embedded Processors) version 5.4.1 20160919 (release) [ARM/embedded-5-
  15              	@	compiled by GNU C version 4.7.4, GMP version 4.3.2, MPFR version 2.4.2, MPC version 0.8.1
  16              	@ GGC heuristics: --param ggc-min-expand=100 --param ggc-min-heapsize=131072
  17              	@ options passed:  -I . -I ./inc -imultilib armv6-m
  18              	@ -iprefix /srv/gcc-arm-none-eabi-5_4-2016q3/bin/../lib/gcc/arm-none-eabi/5.4.1/
  19              	@ -isysroot /srv/gcc-arm-none-eabi-5_4-2016q3/bin/../arm-none-eabi
  20              	@ -MD code/main.d -MF .dep/main.o.d -MP -MQ code/main.o -D__USES_INITFINI__
  21              	@ -D RUN_FROM_FLASH=1 code/main.c -mcpu=cortex-m0 -mthumb
  22              	@ -auxbase-strip code/main.o -gdwarf-2 -O0 -Wall -Wstrict-prototypes
  23              	@ -fomit-frame-pointer -fverbose-asm
  24              	@ options enabled:  -faggressive-loop-optimizations -fauto-inc-dec
  25              	@ -fchkp-check-incomplete-type -fchkp-check-read -fchkp-check-write
  26              	@ -fchkp-instrument-calls -fchkp-narrow-bounds -fchkp-optimize
  27              	@ -fchkp-store-bounds -fchkp-use-static-bounds
  28              	@ -fchkp-use-static-const-bounds -fchkp-use-wrappers -fcommon
  29              	@ -fdelete-null-pointer-checks -fdwarf2-cfi-asm -fearly-inlining
  30              	@ -feliminate-unused-debug-types -ffunction-cse -fgcse-lm -fgnu-runtime
  31              	@ -fgnu-unique -fident -finline-atomics -fira-hoist-pressure
  32              	@ -fira-share-save-slots -fira-share-spill-slots -fivopts
  33              	@ -fkeep-static-consts -fleading-underscore -flifetime-dse
  34              	@ -flto-odr-type-merging -fmath-errno -fmerge-debug-strings
  35              	@ -fomit-frame-pointer -fpeephole -fprefetch-loop-arrays
  36              	@ -freg-struct-return -fsched-critical-path-heuristic
  37              	@ -fsched-dep-count-heuristic -fsched-group-heuristic -fsched-interblock
  38              	@ -fsched-last-insn-heuristic -fsched-rank-heuristic -fsched-spec
  39              	@ -fsched-spec-insn-heuristic -fsched-stalled-insns-dep
  40              	@ -fsemantic-interposition -fshow-column -fsigned-zeros
  41              	@ -fsplit-ivs-in-unroller -fstdarg-opt -fstrict-volatile-bitfields
  42              	@ -fsync-libcalls -ftrapping-math -ftree-coalesce-vars -ftree-cselim
  43              	@ -ftree-forwprop -ftree-loop-if-convert -ftree-loop-im -ftree-loop-ivcanon
  44              	@ -ftree-loop-optimize -ftree-parallelize-loops= -ftree-phiprop
  45              	@ -ftree-reassoc -ftree-scev-cprop -funit-at-a-time -fverbose-asm
  46              	@ -fzero-initialized-in-bss -mlittle-endian -mpic-data-is-text-relative
  47              	@ -msched-prolog -mthumb -mvectorize-with-neon-quad
  48              	
  49              		.text
  50              	.Ltext0:
  51              		.cfi_sections	.debug_frame
  52              		.global	OLED
  53              		.data
  54              		.align	2
  55              		.type	OLED, %object
  56              		.size	OLED, 4
  57              	OLED:
ARM GAS  /tmp/ccLwwf6o.s 			page 2


  58 0000 000000C0 		.word	-1073741824
  59              		.global	SEGMENT
  60              		.align	2
  61              		.type	SEGMENT, %object
  62              		.size	SEGMENT, 4
  63              	SEGMENT:
  64 0004 000000A0 		.word	-1610612736
  65              		.global	TIMER
  66              		.align	2
  67              		.type	TIMER, %object
  68              		.size	TIMER, 4
  69              	TIMER:
  70 0008 00000080 		.word	-2147483648
  71              		.global	SENSOR
  72              		.align	2
  73              		.type	SENSOR, %object
  74              		.size	SENSOR, 4
  75              	SENSOR:
  76 000c 00000060 		.word	1610612736
  77              		.global	BUTTON
  78              		.align	2
  79              		.type	BUTTON, %object
  80              		.size	BUTTON, 4
  81              	BUTTON:
  82 0010 00000040 		.word	1073741824
  83              		.comm	speed_red,1,1
  84              		.comm	isNight,1,1
  85              		.comm	switchDisplay,1,1
  86              		.comm	distance,4,4
  87              		.comm	speed,4,4
  88              		.comm	max_speed,4,4
  89              		.comm	total_distance,4,4
  90              		.comm	post_distance,4,4
  91              		.comm	mode,4,4
  92              		.comm	wheel,4,4
  93              		.comm	wheel_d,4,4
  94              		.comm	time,4,4
  95              		.comm	now_time,4,4
  96              		.comm	post_time,4,4
  97              		.comm	time_h,4,4
  98              		.comm	time_m,4,4
  99              		.comm	time_h_bcd,4,4
 100              		.comm	time_m_bcd,4,4
 101              		.comm	crank,4,4
 102              		.comm	bike_fork,4,4
 103              		.comm	speed_f,4,4
 104              		.comm	speed_b,4,4
 105              		.comm	speed_f_bcd,4,4
 106              		.comm	speed_b_bcd,4,4
 107              		.comm	total_distance_f,4,4
 108              		.comm	total_distance_b,4,4
 109              		.comm	total_distance_f_bcd,4,4
 110              		.comm	total_distance_b_bcd,4,4
 111              		.comm	cadence,4,4
 112              		.comm	cadence_bcd,4,4
 113              		.comm	stop_time_mode,4,4
 114              		.comm	post_fork,4,4
ARM GAS  /tmp/ccLwwf6o.s 			page 3


 115              		.comm	fork_equal,4,4
 116              		.comm	now_stop_time,4,4
 117              		.comm	post_stop_time,4,4
 118              		.comm	stop_time,4,4
 119              		.comm	store_stop_time,4,4
 120              		.text
 121              		.align	2
 122              		.global	setting
 123              		.code	16
 124              		.thumb_func
 125              		.type	setting, %function
 126              	setting:
 127              	.LFB0:
 128              		.file 1 "code/main.c"
   1:code/main.c   **** //------------------------------------------------------------------------------
   2:code/main.c   **** // Titile:  Cortex M0 Software Main C File
   3:code/main.c   **** // Author:  ChangXin Shen & Clark Pu
   4:code/main.c   **** // Team:    C4 Chip Designed
   5:code/main.c   **** // Version: 5.3
   6:code/main.c   **** // Verification: Verified SoC.
   7:code/main.c   **** // Comment: This is a test of hardware functions
   8:code/main.c   **** //------------------------------------------------------------------------------
   9:code/main.c   **** 
  10:code/main.c   **** #define __MAIN_C__
  11:code/main.c   **** #include <stdint.h>
  12:code/main.c   **** #include <stdbool.h>
  13:code/main.c   **** 
  14:code/main.c   **** //------------------------------------------------------------------------------
  15:code/main.c   **** // Hardware Address
  16:code/main.c   **** //------------------------------------------------------------------------------
  17:code/main.c   **** 
  18:code/main.c   **** #define AHB_OLEDR_MANAGER_BASE   0xC0000000
  19:code/main.c   **** #define AHB_SEGMENT_MANAGER_BASE 0xA0000000
  20:code/main.c   **** #define AHB_TIMER_BASE           0x80000000
  21:code/main.c   **** #define AHB_SENSOR_MANAGER_BASE  0x60000000
  22:code/main.c   **** #define AHB_BUTTON_MANAGER_BASE  0x40000000
  23:code/main.c   **** volatile uint32_t* OLED    = (volatile uint32_t*) AHB_OLEDR_MANAGER_BASE;
  24:code/main.c   **** // OLED[0]        X              0xC0000000
  25:code/main.c   **** // OLED[1]        Y              0xC0000004
  26:code/main.c   **** // OLED[2]        Colour         0xC0000008
  27:code/main.c   **** // OLED[3]        Flag           0xC000000A
  28:code/main.c   **** volatile uint32_t* SEGMENT = (volatile uint32_t*) AHB_SEGMENT_MANAGER_BASE;
  29:code/main.c   **** // SEGMENT[0]     Fraction       0xA0000000
  30:code/main.c   **** // SEGMENT[1]     Integer        0xA0000004
  31:code/main.c   **** // SEGMENT[2]     Mode           0xA0000008
  32:code/main.c   **** volatile uint32_t* TIMER   = (volatile uint32_t*) AHB_TIMER_BASE;
  33:code/main.c   **** // TIMER[0]       Long           0x80000000 
  34:code/main.c   **** // TIMER[1]       Short          0x80000004 
  35:code/main.c   **** // TIMER[2]       Flag           0x80000008 
  36:code/main.c   **** volatile uint32_t* SENSOR  = (volatile uint32_t*) AHB_SENSOR_MANAGER_BASE;
  37:code/main.c   **** // SENSOR[0]      Fork           0x60000000           
  38:code/main.c   **** // SENSOR[1]      Crank          0x60000004       
  39:code/main.c   **** volatile uint32_t* BUTTON  = (volatile uint32_t*) AHB_BUTTON_MANAGER_BASE;
  40:code/main.c   **** // BUTTON[0]      DayNight       0x40000000
  41:code/main.c   **** // BUTTON[1]      Mode           0x40000004
  42:code/main.c   **** // BUTTON[2]      Trip           0x40000008
  43:code/main.c   **** // BUTTON[3]      Setting        0x4000000A
ARM GAS  /tmp/ccLwwf6o.s 			page 4


  44:code/main.c   **** // BUTTON[4]      NewData        0x40000010
  45:code/main.c   **** 
  46:code/main.c   **** //------------------------------------------------------------------------------
  47:code/main.c   **** // Globle Variables
  48:code/main.c   **** //------------------------------------------------------------------------------
  49:code/main.c   **** 
  50:code/main.c   **** bool speed_red, isNight, switchDisplay;
  51:code/main.c   **** float distance, speed, max_speed, total_distance, post_distance;
  52:code/main.c   **** uint32_t mode, wheel, wheel_d;
  53:code/main.c   **** uint32_t time, now_time, post_time, time_h, time_m, time_h_bcd, time_m_bcd;
  54:code/main.c   **** uint32_t crank, bike_fork;
  55:code/main.c   **** uint32_t speed_f, speed_b, speed_f_bcd, speed_b_bcd;
  56:code/main.c   **** uint32_t total_distance_f, total_distance_b, total_distance_f_bcd, total_distance_b_bcd;
  57:code/main.c   **** uint32_t cadence, cadence_bcd;
  58:code/main.c   **** uint32_t stop_time_mode, post_fork, fork_equal, now_stop_time, post_stop_time, stop_time, store_sto
  59:code/main.c   **** 
  60:code/main.c   **** //------------------------------------------------------------------------------
  61:code/main.c   **** // Hardware Access Functions
  62:code/main.c   **** //------------------------------------------------------------------------------
  63:code/main.c   **** 
  64:code/main.c   **** bool             setting(void){return BUTTON[3]?true:false;}
 129              		.loc 1 64 0
 130              		.cfi_startproc
 131              		@ args = 0, pretend = 0, frame = 0
 132              		@ frame_needed = 0, uses_anonymous_args = 0
 133              		@ link register save eliminated.
 134              		.loc 1 64 0
 135 0000 044B     		ldr	r3, .L3	@ tmp115,
 136 0002 1B68     		ldr	r3, [r3]	@ D.4690, BUTTON
 137 0004 0C33     		adds	r3, r3, #12	@ D.4690,
 138 0006 1B68     		ldr	r3, [r3]	@ D.4691, *_3
 139 0008 5A1E     		subs	r2, r3, #1	@ tmp118, D.4691
 140 000a 9341     		sbcs	r3, r3, r2	@ tmp117, D.4691, tmp118
 141 000c DBB2     		uxtb	r3, r3	@ D.4692, tmp116
 142 000e 1800     		movs	r0, r3	@, <retval>
 143              		@ sp needed	@
 144 0010 7047     		bx	lr
 145              	.L4:
 146 0012 C046     		.align	2
 147              	.L3:
 148 0014 00000000 		.word	BUTTON
 149              		.cfi_endproc
 150              	.LFE0:
 151              		.size	setting, .-setting
 152              		.align	2
 153              		.global	press_trip
 154              		.code	16
 155              		.thumb_func
 156              		.type	press_trip, %function
 157              	press_trip:
 158              	.LFB1:
  65:code/main.c   **** bool          press_trip(void){return BUTTON[2]?true:false;}
 159              		.loc 1 65 0
 160              		.cfi_startproc
 161              		@ args = 0, pretend = 0, frame = 0
 162              		@ frame_needed = 0, uses_anonymous_args = 0
 163              		@ link register save eliminated.
ARM GAS  /tmp/ccLwwf6o.s 			page 5


 164              		.loc 1 65 0
 165 0018 044B     		ldr	r3, .L7	@ tmp115,
 166 001a 1B68     		ldr	r3, [r3]	@ D.4693, BUTTON
 167 001c 0833     		adds	r3, r3, #8	@ D.4693,
 168 001e 1B68     		ldr	r3, [r3]	@ D.4694, *_3
 169 0020 5A1E     		subs	r2, r3, #1	@ tmp118, D.4694
 170 0022 9341     		sbcs	r3, r3, r2	@ tmp117, D.4694, tmp118
 171 0024 DBB2     		uxtb	r3, r3	@ D.4695, tmp116
 172 0026 1800     		movs	r0, r3	@, <retval>
 173              		@ sp needed	@
 174 0028 7047     		bx	lr
 175              	.L8:
 176 002a C046     		.align	2
 177              	.L7:
 178 002c 00000000 		.word	BUTTON
 179              		.cfi_endproc
 180              	.LFE1:
 181              		.size	press_trip, .-press_trip
 182              		.align	2
 183              		.global	press_mode
 184              		.code	16
 185              		.thumb_func
 186              		.type	press_mode, %function
 187              	press_mode:
 188              	.LFB2:
  66:code/main.c   **** bool          press_mode(void){return BUTTON[1]?true:false;}
 189              		.loc 1 66 0
 190              		.cfi_startproc
 191              		@ args = 0, pretend = 0, frame = 0
 192              		@ frame_needed = 0, uses_anonymous_args = 0
 193              		@ link register save eliminated.
 194              		.loc 1 66 0
 195 0030 044B     		ldr	r3, .L11	@ tmp115,
 196 0032 1B68     		ldr	r3, [r3]	@ D.4696, BUTTON
 197 0034 0433     		adds	r3, r3, #4	@ D.4696,
 198 0036 1B68     		ldr	r3, [r3]	@ D.4697, *_3
 199 0038 5A1E     		subs	r2, r3, #1	@ tmp118, D.4697
 200 003a 9341     		sbcs	r3, r3, r2	@ tmp117, D.4697, tmp118
 201 003c DBB2     		uxtb	r3, r3	@ D.4698, tmp116
 202 003e 1800     		movs	r0, r3	@, <retval>
 203              		@ sp needed	@
 204 0040 7047     		bx	lr
 205              	.L12:
 206 0042 C046     		.align	2
 207              	.L11:
 208 0044 00000000 		.word	BUTTON
 209              		.cfi_endproc
 210              	.LFE2:
 211              		.size	press_mode, .-press_mode
 212              		.align	2
 213              		.global	press_d_mode
 214              		.code	16
 215              		.thumb_func
 216              		.type	press_d_mode, %function
 217              	press_d_mode:
 218              	.LFB3:
  67:code/main.c   **** bool        press_d_mode(void){return BUTTON[0]?true:false;}
ARM GAS  /tmp/ccLwwf6o.s 			page 6


 219              		.loc 1 67 0
 220              		.cfi_startproc
 221              		@ args = 0, pretend = 0, frame = 0
 222              		@ frame_needed = 0, uses_anonymous_args = 0
 223              		@ link register save eliminated.
 224              		.loc 1 67 0
 225 0048 034B     		ldr	r3, .L15	@ tmp114,
 226 004a 1B68     		ldr	r3, [r3]	@ D.4699, BUTTON
 227 004c 1B68     		ldr	r3, [r3]	@ D.4700, *_2
 228 004e 5A1E     		subs	r2, r3, #1	@ tmp117, D.4700
 229 0050 9341     		sbcs	r3, r3, r2	@ tmp116, D.4700, tmp117
 230 0052 DBB2     		uxtb	r3, r3	@ D.4701, tmp115
 231 0054 1800     		movs	r0, r3	@, <retval>
 232              		@ sp needed	@
 233 0056 7047     		bx	lr
 234              	.L16:
 235              		.align	2
 236              	.L15:
 237 0058 00000000 		.word	BUTTON
 238              		.cfi_endproc
 239              	.LFE3:
 240              		.size	press_d_mode, .-press_d_mode
 241              		.align	2
 242              		.global	check_button
 243              		.code	16
 244              		.thumb_func
 245              		.type	check_button, %function
 246              	check_button:
 247              	.LFB4:
  68:code/main.c   **** bool        check_button(void){return BUTTON[4]?true:false;}
 248              		.loc 1 68 0
 249              		.cfi_startproc
 250              		@ args = 0, pretend = 0, frame = 0
 251              		@ frame_needed = 0, uses_anonymous_args = 0
 252              		@ link register save eliminated.
 253              		.loc 1 68 0
 254 005c 044B     		ldr	r3, .L19	@ tmp115,
 255 005e 1B68     		ldr	r3, [r3]	@ D.4702, BUTTON
 256 0060 1033     		adds	r3, r3, #16	@ D.4702,
 257 0062 1B68     		ldr	r3, [r3]	@ D.4703, *_3
 258 0064 5A1E     		subs	r2, r3, #1	@ tmp118, D.4703
 259 0066 9341     		sbcs	r3, r3, r2	@ tmp117, D.4703, tmp118
 260 0068 DBB2     		uxtb	r3, r3	@ D.4704, tmp116
 261 006a 1800     		movs	r0, r3	@, <retval>
 262              		@ sp needed	@
 263 006c 7047     		bx	lr
 264              	.L20:
 265 006e C046     		.align	2
 266              	.L19:
 267 0070 00000000 		.word	BUTTON
 268              		.cfi_endproc
 269              	.LFE4:
 270              		.size	check_button, .-check_button
 271              		.align	2
 272              		.global	time_up
 273              		.code	16
 274              		.thumb_func
ARM GAS  /tmp/ccLwwf6o.s 			page 7


 275              		.type	time_up, %function
 276              	time_up:
 277              	.LFB5:
  69:code/main.c   **** bool             time_up(void){return  TIMER[2]?true:false;}
 278              		.loc 1 69 0
 279              		.cfi_startproc
 280              		@ args = 0, pretend = 0, frame = 0
 281              		@ frame_needed = 0, uses_anonymous_args = 0
 282              		@ link register save eliminated.
 283              		.loc 1 69 0
 284 0074 044B     		ldr	r3, .L23	@ tmp115,
 285 0076 1B68     		ldr	r3, [r3]	@ D.4705, TIMER
 286 0078 0833     		adds	r3, r3, #8	@ D.4705,
 287 007a 1B68     		ldr	r3, [r3]	@ D.4706, *_3
 288 007c 5A1E     		subs	r2, r3, #1	@ tmp118, D.4706
 289 007e 9341     		sbcs	r3, r3, r2	@ tmp117, D.4706, tmp118
 290 0080 DBB2     		uxtb	r3, r3	@ D.4707, tmp116
 291 0082 1800     		movs	r0, r3	@, <retval>
 292              		@ sp needed	@
 293 0084 7047     		bx	lr
 294              	.L24:
 295 0086 C046     		.align	2
 296              	.L23:
 297 0088 00000000 		.word	TIMER
 298              		.cfi_endproc
 299              	.LFE5:
 300              		.size	time_up, .-time_up
 301              		.align	2
 302              		.global	read_time_short
 303              		.code	16
 304              		.thumb_func
 305              		.type	read_time_short, %function
 306              	read_time_short:
 307              	.LFB6:
  70:code/main.c   **** uint32_t read_time_short(void){return  TIMER[1];}
 308              		.loc 1 70 0
 309              		.cfi_startproc
 310              		@ args = 0, pretend = 0, frame = 0
 311              		@ frame_needed = 0, uses_anonymous_args = 0
 312              		@ link register save eliminated.
 313              		.loc 1 70 0
 314 008c 024B     		ldr	r3, .L27	@ tmp114,
 315 008e 1B68     		ldr	r3, [r3]	@ D.4708, TIMER
 316 0090 0433     		adds	r3, r3, #4	@ D.4708,
 317 0092 1B68     		ldr	r3, [r3]	@ D.4709, *_3
 318 0094 1800     		movs	r0, r3	@, <retval>
 319              		@ sp needed	@
 320 0096 7047     		bx	lr
 321              	.L28:
 322              		.align	2
 323              	.L27:
 324 0098 00000000 		.word	TIMER
 325              		.cfi_endproc
 326              	.LFE6:
 327              		.size	read_time_short, .-read_time_short
 328              		.align	2
 329              		.global	read_time_long
ARM GAS  /tmp/ccLwwf6o.s 			page 8


 330              		.code	16
 331              		.thumb_func
 332              		.type	read_time_long, %function
 333              	read_time_long:
 334              	.LFB7:
  71:code/main.c   **** uint32_t  read_time_long(void){return  TIMER[0];}
 335              		.loc 1 71 0
 336              		.cfi_startproc
 337              		@ args = 0, pretend = 0, frame = 0
 338              		@ frame_needed = 0, uses_anonymous_args = 0
 339              		@ link register save eliminated.
 340              		.loc 1 71 0
 341 009c 024B     		ldr	r3, .L31	@ tmp113,
 342 009e 1B68     		ldr	r3, [r3]	@ D.4710, TIMER
 343 00a0 1B68     		ldr	r3, [r3]	@ D.4711, *_2
 344 00a2 1800     		movs	r0, r3	@, <retval>
 345              		@ sp needed	@
 346 00a4 7047     		bx	lr
 347              	.L32:
 348 00a6 C046     		.align	2
 349              	.L31:
 350 00a8 00000000 		.word	TIMER
 351              		.cfi_endproc
 352              	.LFE7:
 353              		.size	read_time_long, .-read_time_long
 354              		.align	2
 355              		.global	read_crank
 356              		.code	16
 357              		.thumb_func
 358              		.type	read_crank, %function
 359              	read_crank:
 360              	.LFB8:
  72:code/main.c   **** uint32_t      read_crank(void){return SENSOR[1];}
 361              		.loc 1 72 0
 362              		.cfi_startproc
 363              		@ args = 0, pretend = 0, frame = 0
 364              		@ frame_needed = 0, uses_anonymous_args = 0
 365              		@ link register save eliminated.
 366              		.loc 1 72 0
 367 00ac 024B     		ldr	r3, .L35	@ tmp114,
 368 00ae 1B68     		ldr	r3, [r3]	@ D.4712, SENSOR
 369 00b0 0433     		adds	r3, r3, #4	@ D.4712,
 370 00b2 1B68     		ldr	r3, [r3]	@ D.4713, *_3
 371 00b4 1800     		movs	r0, r3	@, <retval>
 372              		@ sp needed	@
 373 00b6 7047     		bx	lr
 374              	.L36:
 375              		.align	2
 376              	.L35:
 377 00b8 00000000 		.word	SENSOR
 378              		.cfi_endproc
 379              	.LFE8:
 380              		.size	read_crank, .-read_crank
 381              		.align	2
 382              		.global	read_fork
 383              		.code	16
 384              		.thumb_func
ARM GAS  /tmp/ccLwwf6o.s 			page 9


 385              		.type	read_fork, %function
 386              	read_fork:
 387              	.LFB9:
  73:code/main.c   **** uint32_t       read_fork(void){return SENSOR[0];}
 388              		.loc 1 73 0
 389              		.cfi_startproc
 390              		@ args = 0, pretend = 0, frame = 0
 391              		@ frame_needed = 0, uses_anonymous_args = 0
 392              		@ link register save eliminated.
 393              		.loc 1 73 0
 394 00bc 024B     		ldr	r3, .L39	@ tmp113,
 395 00be 1B68     		ldr	r3, [r3]	@ D.4714, SENSOR
 396 00c0 1B68     		ldr	r3, [r3]	@ D.4715, *_2
 397 00c2 1800     		movs	r0, r3	@, <retval>
 398              		@ sp needed	@
 399 00c4 7047     		bx	lr
 400              	.L40:
 401 00c6 C046     		.align	2
 402              	.L39:
 403 00c8 00000000 		.word	SENSOR
 404              		.cfi_endproc
 405              	.LFE9:
 406              		.size	read_fork, .-read_fork
 407              		.align	2
 408              		.global	clear_fork
 409              		.code	16
 410              		.thumb_func
 411              		.type	clear_fork, %function
 412              	clear_fork:
 413              	.LFB10:
  74:code/main.c   **** void          clear_fork(void){SENSOR[0] = 0; return;}
 414              		.loc 1 74 0
 415              		.cfi_startproc
 416              		@ args = 0, pretend = 0, frame = 0
 417              		@ frame_needed = 0, uses_anonymous_args = 0
 418              		@ link register save eliminated.
 419              		.loc 1 74 0
 420 00cc 024B     		ldr	r3, .L43	@ tmp111,
 421 00ce 1B68     		ldr	r3, [r3]	@ D.4716, SENSOR
 422 00d0 0022     		movs	r2, #0	@ tmp112,
 423 00d2 1A60     		str	r2, [r3]	@ tmp112, *_2
 424 00d4 C046     		nop
 425              		@ sp needed	@
 426 00d6 7047     		bx	lr
 427              	.L44:
 428              		.align	2
 429              	.L43:
 430 00d8 00000000 		.word	SENSOR
 431              		.cfi_endproc
 432              	.LFE10:
 433              		.size	clear_fork, .-clear_fork
 434              		.align	2
 435              		.global	clear_timer_long
 436              		.code	16
 437              		.thumb_func
 438              		.type	clear_timer_long, %function
 439              	clear_timer_long:
ARM GAS  /tmp/ccLwwf6o.s 			page 10


 440              	.LFB11:
  75:code/main.c   **** void    clear_timer_long(void){TIMER[0] = 0; post_time = 0; return;}
 441              		.loc 1 75 0
 442              		.cfi_startproc
 443              		@ args = 0, pretend = 0, frame = 0
 444              		@ frame_needed = 0, uses_anonymous_args = 0
 445              		@ link register save eliminated.
 446              		.loc 1 75 0
 447 00dc 044B     		ldr	r3, .L47	@ tmp111,
 448 00de 1B68     		ldr	r3, [r3]	@ D.4717, TIMER
 449 00e0 0022     		movs	r2, #0	@ tmp112,
 450 00e2 1A60     		str	r2, [r3]	@ tmp112, *_2
 451 00e4 034B     		ldr	r3, .L47+4	@ tmp113,
 452 00e6 0022     		movs	r2, #0	@ tmp114,
 453 00e8 1A60     		str	r2, [r3]	@ tmp114, post_time
 454 00ea C046     		nop
 455              		@ sp needed	@
 456 00ec 7047     		bx	lr
 457              	.L48:
 458 00ee C046     		.align	2
 459              	.L47:
 460 00f0 00000000 		.word	TIMER
 461 00f4 00000000 		.word	post_time
 462              		.cfi_endproc
 463              	.LFE11:
 464              		.size	clear_timer_long, .-clear_timer_long
 465              		.align	2
 466              		.global	display_segment
 467              		.code	16
 468              		.thumb_func
 469              		.type	display_segment, %function
 470              	display_segment:
 471              	.LFB12:
  76:code/main.c   **** void     display_segment(uint32_t Mode, uint32_t Integer, uint32_t Fraction){SEGMENT[0] = Fraction;
 472              		.loc 1 76 0
 473              		.cfi_startproc
 474              		@ args = 0, pretend = 0, frame = 16
 475              		@ frame_needed = 0, uses_anonymous_args = 0
 476              		@ link register save eliminated.
 477 00f8 84B0     		sub	sp, sp, #16	@,,
 478              	.LCFI0:
 479              		.cfi_def_cfa_offset 16
 480 00fa 0390     		str	r0, [sp, #12]	@ Mode, Mode
 481 00fc 0291     		str	r1, [sp, #8]	@ Integer, Integer
 482 00fe 0192     		str	r2, [sp, #4]	@ Fraction, Fraction
 483              		.loc 1 76 0
 484 0100 084B     		ldr	r3, .L51	@ tmp115,
 485 0102 1B68     		ldr	r3, [r3]	@ D.4718, SEGMENT
 486 0104 019A     		ldr	r2, [sp, #4]	@ tmp116, Fraction
 487 0106 1A60     		str	r2, [r3]	@ tmp116, *_2
 488 0108 064B     		ldr	r3, .L51	@ tmp117,
 489 010a 1B68     		ldr	r3, [r3]	@ D.4718, SEGMENT
 490 010c 0433     		adds	r3, r3, #4	@ D.4718,
 491 010e 029A     		ldr	r2, [sp, #8]	@ tmp118, Integer
 492 0110 1A60     		str	r2, [r3]	@ tmp118, *_6
 493 0112 044B     		ldr	r3, .L51	@ tmp119,
 494 0114 1B68     		ldr	r3, [r3]	@ D.4718, SEGMENT
ARM GAS  /tmp/ccLwwf6o.s 			page 11


 495 0116 0833     		adds	r3, r3, #8	@ D.4718,
 496 0118 039A     		ldr	r2, [sp, #12]	@ tmp120, Mode
 497 011a 1A60     		str	r2, [r3]	@ tmp120, *_10
 498 011c C046     		nop
 499 011e 04B0     		add	sp, sp, #16	@,,
 500              		@ sp needed	@
 501 0120 7047     		bx	lr
 502              	.L52:
 503 0122 C046     		.align	2
 504              	.L51:
 505 0124 00000000 		.word	SEGMENT
 506              		.cfi_endproc
 507              	.LFE12:
 508              		.size	display_segment, .-display_segment
 509              		.global	__aeabi_uidivmod
 510              		.global	__aeabi_uidiv
 511              		.align	2
 512              		.global	int2bcd
 513              		.code	16
 514              		.thumb_func
 515              		.type	int2bcd, %function
 516              	int2bcd:
 517              	.LFB13:
  77:code/main.c   **** 
  78:code/main.c   **** //------------------------------------------------------------------------------
  79:code/main.c   **** // Compound Functions
  80:code/main.c   **** //------------------------------------------------------------------------------
  81:code/main.c   **** 
  82:code/main.c   **** uint32_t int2bcd(uint32_t value){
 518              		.loc 1 82 0
 519              		.cfi_startproc
 520              		@ args = 0, pretend = 0, frame = 24
 521              		@ frame_needed = 0, uses_anonymous_args = 0
 522 0128 00B5     		push	{lr}	@
 523              	.LCFI1:
 524              		.cfi_def_cfa_offset 4
 525              		.cfi_offset 14, -4
 526 012a 87B0     		sub	sp, sp, #28	@,,
 527              	.LCFI2:
 528              		.cfi_def_cfa_offset 32
 529 012c 0190     		str	r0, [sp, #4]	@ value, value
  83:code/main.c   **** 
  84:code/main.c   ****     uint32_t bcd = 0;
 530              		.loc 1 84 0
 531 012e 0023     		movs	r3, #0	@ tmp113,
 532 0130 0593     		str	r3, [sp, #20]	@ tmp113, bcd
  85:code/main.c   ****     uint32_t shift = 0;
 533              		.loc 1 85 0
 534 0132 0023     		movs	r3, #0	@ tmp114,
 535 0134 0493     		str	r3, [sp, #16]	@ tmp114, shift
  86:code/main.c   **** 
  87:code/main.c   ****     while (value != 0) {
 536              		.loc 1 87 0
 537 0136 17E0     		b	.L54	@
 538              	.L55:
 539              	.LBB2:
  88:code/main.c   **** 
ARM GAS  /tmp/ccLwwf6o.s 			page 12


  89:code/main.c   ****       uint32_t num = value % 10;
 540              		.loc 1 89 0
 541 0138 019B     		ldr	r3, [sp, #4]	@ tmp116, value
 542 013a 0A21     		movs	r1, #10	@,
 543 013c 1800     		movs	r0, r3	@, tmp116
 544 013e FFF7FEFF 		bl	__aeabi_uidivmod	@
 545 0142 0B00     		movs	r3, r1	@ tmp121,
 546 0144 0393     		str	r3, [sp, #12]	@ tmp121, num
  90:code/main.c   ****       bcd = bcd | (num << shift);
 547              		.loc 1 90 0
 548 0146 039A     		ldr	r2, [sp, #12]	@ tmp122, num
 549 0148 049B     		ldr	r3, [sp, #16]	@ tmp123, shift
 550 014a 9A40     		lsls	r2, r2, r3	@ tmp122, tmp122, tmp123
 551 014c 1300     		movs	r3, r2	@ D.4719, tmp122
 552 014e 059A     		ldr	r2, [sp, #20]	@ tmp125, bcd
 553 0150 1343     		orrs	r3, r2	@ tmp124, tmp125
 554 0152 0593     		str	r3, [sp, #20]	@ tmp124, bcd
  91:code/main.c   ****       value = value / 10;
 555              		.loc 1 91 0
 556 0154 019B     		ldr	r3, [sp, #4]	@ tmp127, value
 557 0156 0A21     		movs	r1, #10	@,
 558 0158 1800     		movs	r0, r3	@, tmp127
 559 015a FFF7FEFF 		bl	__aeabi_uidiv	@
 560 015e 0300     		movs	r3, r0	@ tmp130,
 561 0160 0193     		str	r3, [sp, #4]	@ tmp130, value
  92:code/main.c   ****       shift = shift + 4;
 562              		.loc 1 92 0
 563 0162 049B     		ldr	r3, [sp, #16]	@ tmp132, shift
 564 0164 0433     		adds	r3, r3, #4	@ tmp131,
 565 0166 0493     		str	r3, [sp, #16]	@ tmp131, shift
 566              	.L54:
 567              	.LBE2:
  87:code/main.c   **** 
 568              		.loc 1 87 0
 569 0168 019B     		ldr	r3, [sp, #4]	@ tmp133, value
 570 016a 002B     		cmp	r3, #0	@ tmp133,
 571 016c E4D1     		bne	.L55	@,
  93:code/main.c   **** 
  94:code/main.c   ****     }
  95:code/main.c   **** 
  96:code/main.c   ****     return bcd;
 572              		.loc 1 96 0
 573 016e 059B     		ldr	r3, [sp, #20]	@ D.4720, bcd
  97:code/main.c   **** 
  98:code/main.c   **** }
 574              		.loc 1 98 0
 575 0170 1800     		movs	r0, r3	@, <retval>
 576 0172 07B0     		add	sp, sp, #28	@,,
 577              		@ sp needed	@
 578 0174 00BD     		pop	{pc}
 579              		.cfi_endproc
 580              	.LFE13:
 581              		.size	int2bcd, .-int2bcd
 582 0176 C046     		.align	2
 583              		.global	check_time_stop
 584              		.code	16
 585              		.thumb_func
ARM GAS  /tmp/ccLwwf6o.s 			page 13


 586              		.type	check_time_stop, %function
 587              	check_time_stop:
 588              	.LFB14:
  99:code/main.c   **** 
 100:code/main.c   **** void check_time_stop(void) {
 589              		.loc 1 100 0
 590              		.cfi_startproc
 591              		@ args = 0, pretend = 0, frame = 0
 592              		@ frame_needed = 0, uses_anonymous_args = 0
 593 0178 10B5     		push	{r4, lr}	@
 594              	.LCFI3:
 595              		.cfi_def_cfa_offset 8
 596              		.cfi_offset 4, -8
 597              		.cfi_offset 14, -4
 101:code/main.c   **** 
 102:code/main.c   ****   bike_fork = read_fork();
 598              		.loc 1 102 0
 599 017a FFF7FEFF 		bl	read_fork	@
 600 017e 0200     		movs	r2, r0	@ D.4721,
 601 0180 274B     		ldr	r3, .L65	@ tmp130,
 602 0182 1A60     		str	r2, [r3]	@ D.4721, bike_fork
 103:code/main.c   **** 
 104:code/main.c   ****   if (stop_time_mode == 0) {
 603              		.loc 1 104 0
 604 0184 274B     		ldr	r3, .L65+4	@ tmp131,
 605 0186 1B68     		ldr	r3, [r3]	@ D.4721, stop_time_mode
 606 0188 002B     		cmp	r3, #0	@ D.4721,
 607 018a 35D1     		bne	.L58	@,
 105:code/main.c   **** 
 106:code/main.c   ****     if (bike_fork == post_fork) {
 608              		.loc 1 106 0
 609 018c 244B     		ldr	r3, .L65	@ tmp132,
 610 018e 1A68     		ldr	r2, [r3]	@ D.4721, bike_fork
 611 0190 254B     		ldr	r3, .L65+8	@ tmp133,
 612 0192 1B68     		ldr	r3, [r3]	@ D.4721, post_fork
 613 0194 9A42     		cmp	r2, r3	@ D.4721, D.4721
 614 0196 28D1     		bne	.L59	@,
 107:code/main.c   **** 
 108:code/main.c   ****       fork_equal = fork_equal + 1;
 615              		.loc 1 108 0
 616 0198 244B     		ldr	r3, .L65+12	@ tmp134,
 617 019a 1B68     		ldr	r3, [r3]	@ D.4721, fork_equal
 618 019c 5A1C     		adds	r2, r3, #1	@ D.4721, D.4721,
 619 019e 234B     		ldr	r3, .L65+12	@ tmp135,
 620 01a0 1A60     		str	r2, [r3]	@ D.4721, fork_equal
 109:code/main.c   ****       now_stop_time = read_time_long();
 621              		.loc 1 109 0
 622 01a2 FFF7FEFF 		bl	read_time_long	@
 623 01a6 0200     		movs	r2, r0	@ D.4721,
 624 01a8 214B     		ldr	r3, .L65+16	@ tmp136,
 625 01aa 1A60     		str	r2, [r3]	@ D.4721, now_stop_time
 110:code/main.c   **** 
 111:code/main.c   ****       if (fork_equal == 1) {
 626              		.loc 1 111 0
 627 01ac 1F4B     		ldr	r3, .L65+12	@ tmp137,
 628 01ae 1B68     		ldr	r3, [r3]	@ D.4721, fork_equal
 629 01b0 012B     		cmp	r3, #1	@ D.4721,
ARM GAS  /tmp/ccLwwf6o.s 			page 14


 630 01b2 07D1     		bne	.L60	@,
 112:code/main.c   **** 
 113:code/main.c   ****         post_stop_time = now_stop_time;
 631              		.loc 1 113 0
 632 01b4 1E4B     		ldr	r3, .L65+16	@ tmp138,
 633 01b6 1A68     		ldr	r2, [r3]	@ D.4721, now_stop_time
 634 01b8 1E4B     		ldr	r3, .L65+20	@ tmp139,
 635 01ba 1A60     		str	r2, [r3]	@ D.4721, post_stop_time
 114:code/main.c   ****         store_stop_time = now_stop_time;
 636              		.loc 1 114 0
 637 01bc 1C4B     		ldr	r3, .L65+16	@ tmp140,
 638 01be 1A68     		ldr	r2, [r3]	@ D.4721, now_stop_time
 639 01c0 1D4B     		ldr	r3, .L65+24	@ tmp141,
 640 01c2 1A60     		str	r2, [r3]	@ D.4721, store_stop_time
 641              	.L60:
 115:code/main.c   **** 
 116:code/main.c   ****       }
 117:code/main.c   **** 
 118:code/main.c   ****       stop_time = now_stop_time - post_stop_time;
 642              		.loc 1 118 0
 643 01c4 1A4B     		ldr	r3, .L65+16	@ tmp142,
 644 01c6 1A68     		ldr	r2, [r3]	@ D.4721, now_stop_time
 645 01c8 1A4B     		ldr	r3, .L65+20	@ tmp143,
 646 01ca 1B68     		ldr	r3, [r3]	@ D.4721, post_stop_time
 647 01cc D21A     		subs	r2, r2, r3	@ D.4721, D.4721, D.4721
 648 01ce 1B4B     		ldr	r3, .L65+28	@ tmp144,
 649 01d0 1A60     		str	r2, [r3]	@ D.4721, stop_time
 119:code/main.c   **** 
 120:code/main.c   ****       if (stop_time >= 6) {
 650              		.loc 1 120 0
 651 01d2 1A4B     		ldr	r3, .L65+28	@ tmp145,
 652 01d4 1B68     		ldr	r3, [r3]	@ D.4721, stop_time
 653 01d6 052B     		cmp	r3, #5	@ D.4721,
 654 01d8 02D9     		bls	.L61	@,
 121:code/main.c   **** 
 122:code/main.c   ****         stop_time_mode = 1;
 655              		.loc 1 122 0
 656 01da 124B     		ldr	r3, .L65+4	@ tmp146,
 657 01dc 0122     		movs	r2, #1	@ tmp147,
 658 01de 1A60     		str	r2, [r3]	@ tmp147, stop_time_mode
 659              	.L61:
 123:code/main.c   **** 
 124:code/main.c   ****       }
 125:code/main.c   **** 
 126:code/main.c   ****       post_stop_time = now_stop_time;
 660              		.loc 1 126 0
 661 01e0 134B     		ldr	r3, .L65+16	@ tmp148,
 662 01e2 1A68     		ldr	r2, [r3]	@ D.4721, now_stop_time
 663 01e4 134B     		ldr	r3, .L65+20	@ tmp149,
 664 01e6 1A60     		str	r2, [r3]	@ D.4721, post_stop_time
 665 01e8 14E0     		b	.L63	@
 666              	.L59:
 127:code/main.c   **** 
 128:code/main.c   ****     } else {
 129:code/main.c   **** 
 130:code/main.c   ****       fork_equal = 0;
 667              		.loc 1 130 0
ARM GAS  /tmp/ccLwwf6o.s 			page 15


 668 01ea 104B     		ldr	r3, .L65+12	@ tmp150,
 669 01ec 0022     		movs	r2, #0	@ tmp151,
 670 01ee 1A60     		str	r2, [r3]	@ tmp151, fork_equal
 131:code/main.c   ****       store_stop_time = 0;
 671              		.loc 1 131 0
 672 01f0 114B     		ldr	r3, .L65+24	@ tmp152,
 673 01f2 0022     		movs	r2, #0	@ tmp153,
 674 01f4 1A60     		str	r2, [r3]	@ tmp153, store_stop_time
 675 01f6 0DE0     		b	.L63	@
 676              	.L58:
 132:code/main.c   **** 
 133:code/main.c   ****     }
 134:code/main.c   **** 
 135:code/main.c   ****   } else {
 136:code/main.c   **** 
 137:code/main.c   ****     if (bike_fork != post_fork) {
 677              		.loc 1 137 0
 678 01f8 094B     		ldr	r3, .L65	@ tmp154,
 679 01fa 1A68     		ldr	r2, [r3]	@ D.4721, bike_fork
 680 01fc 0A4B     		ldr	r3, .L65+8	@ tmp155,
 681 01fe 1B68     		ldr	r3, [r3]	@ D.4721, post_fork
 682 0200 9A42     		cmp	r2, r3	@ D.4721, D.4721
 683 0202 07D0     		beq	.L63	@,
 138:code/main.c   **** 
 139:code/main.c   ****       stop_time_mode = 0;
 684              		.loc 1 139 0
 685 0204 074B     		ldr	r3, .L65+4	@ tmp156,
 686 0206 0022     		movs	r2, #0	@ tmp157,
 687 0208 1A60     		str	r2, [r3]	@ tmp157, stop_time_mode
 140:code/main.c   ****       TIMER[0] = store_stop_time;
 688              		.loc 1 140 0
 689 020a 0D4B     		ldr	r3, .L65+32	@ tmp158,
 690 020c 1B68     		ldr	r3, [r3]	@ D.4722, TIMER
 691 020e 0A4A     		ldr	r2, .L65+24	@ tmp159,
 692 0210 1268     		ldr	r2, [r2]	@ D.4721, store_stop_time
 693 0212 1A60     		str	r2, [r3]	@ D.4721, *_36
 694              	.L63:
 141:code/main.c   **** 
 142:code/main.c   ****     }
 143:code/main.c   **** 
 144:code/main.c   ****   }
 145:code/main.c   **** 
 146:code/main.c   ****   post_fork = bike_fork;
 695              		.loc 1 146 0
 696 0214 024B     		ldr	r3, .L65	@ tmp160,
 697 0216 1A68     		ldr	r2, [r3]	@ D.4721, bike_fork
 698 0218 034B     		ldr	r3, .L65+8	@ tmp161,
 699 021a 1A60     		str	r2, [r3]	@ D.4721, post_fork
 147:code/main.c   **** 
 148:code/main.c   ****   return;
 700              		.loc 1 148 0
 701 021c C046     		nop
 149:code/main.c   **** 
 150:code/main.c   **** }
 702              		.loc 1 150 0
 703              		@ sp needed	@
 704 021e 10BD     		pop	{r4, pc}
ARM GAS  /tmp/ccLwwf6o.s 			page 16


 705              	.L66:
 706              		.align	2
 707              	.L65:
 708 0220 00000000 		.word	bike_fork
 709 0224 00000000 		.word	stop_time_mode
 710 0228 00000000 		.word	post_fork
 711 022c 00000000 		.word	fork_equal
 712 0230 00000000 		.word	now_stop_time
 713 0234 00000000 		.word	post_stop_time
 714 0238 00000000 		.word	store_stop_time
 715 023c 00000000 		.word	stop_time
 716 0240 00000000 		.word	TIMER
 717              		.cfi_endproc
 718              	.LFE14:
 719              		.size	check_time_stop, .-check_time_stop
 720              		.align	2
 721              		.global	wait_for_press
 722              		.code	16
 723              		.thumb_func
 724              		.type	wait_for_press, %function
 725              	wait_for_press:
 726              	.LFB15:
 151:code/main.c   **** 
 152:code/main.c   **** bool wait_for_press(void){
 727              		.loc 1 152 0
 728              		.cfi_startproc
 729              		@ args = 0, pretend = 0, frame = 0
 730              		@ frame_needed = 0, uses_anonymous_args = 0
 731 0244 10B5     		push	{r4, lr}	@
 732              	.LCFI4:
 733              		.cfi_def_cfa_offset 8
 734              		.cfi_offset 4, -8
 735              		.cfi_offset 14, -4
 736              	.L71:
 153:code/main.c   **** 
 154:code/main.c   ****   // 若三秒内没有按下，则返回假
 155:code/main.c   ****   while(1) {
 156:code/main.c   **** 
 157:code/main.c   ****     check_time_stop();
 737              		.loc 1 157 0
 738 0246 FFF7FEFF 		bl	check_time_stop	@
 158:code/main.c   **** 
 159:code/main.c   ****     if (check_button())
 739              		.loc 1 159 0
 740 024a FFF7FEFF 		bl	check_button	@
 741 024e 031E     		subs	r3, r0, #0	@ tmp114,,
 742 0250 01D0     		beq	.L68	@,
 160:code/main.c   **** 
 161:code/main.c   ****       return true;
 743              		.loc 1 161 0
 744 0252 0123     		movs	r3, #1	@ D.4723,
 745 0254 06E0     		b	.L69	@
 746              	.L68:
 162:code/main.c   **** 
 163:code/main.c   ****     else if (time_up()) {
 747              		.loc 1 163 0
 748 0256 FFF7FEFF 		bl	time_up	@
ARM GAS  /tmp/ccLwwf6o.s 			page 17


 749 025a 031E     		subs	r3, r0, #0	@ tmp116,,
 750 025c F3D0     		beq	.L71	@,
 164:code/main.c   **** 
 165:code/main.c   ****       read_time_short();
 751              		.loc 1 165 0
 752 025e FFF7FEFF 		bl	read_time_short	@
 166:code/main.c   **** 
 167:code/main.c   ****       return false;
 753              		.loc 1 167 0
 754 0262 0023     		movs	r3, #0	@ D.4723,
 755              	.L69:
 168:code/main.c   **** 
 169:code/main.c   ****     }
 170:code/main.c   **** 
 171:code/main.c   ****   }
 172:code/main.c   **** 
 173:code/main.c   **** }
 756              		.loc 1 173 0
 757 0264 1800     		movs	r0, r3	@, <retval>
 758              		@ sp needed	@
 759 0266 10BD     		pop	{r4, pc}
 760              		.cfi_endproc
 761              	.LFE15:
 762              		.size	wait_for_press, .-wait_for_press
 763              		.align	2
 764              		.global	wait_for_setting
 765              		.code	16
 766              		.thumb_func
 767              		.type	wait_for_setting, %function
 768              	wait_for_setting:
 769              	.LFB16:
 174:code/main.c   **** 
 175:code/main.c   **** void wait_for_setting(void) {
 770              		.loc 1 175 0
 771              		.cfi_startproc
 772              		@ args = 0, pretend = 0, frame = 24
 773              		@ frame_needed = 0, uses_anonymous_args = 0
 774 0268 00B5     		push	{lr}	@
 775              	.LCFI5:
 776              		.cfi_def_cfa_offset 4
 777              		.cfi_offset 14, -4
 778 026a 87B0     		sub	sp, sp, #28	@,,
 779              	.LCFI6:
 780              		.cfi_def_cfa_offset 32
 176:code/main.c   **** 
 177:code/main.c   ****   uint32_t press_times = 0;
 781              		.loc 1 177 0
 782 026c 0023     		movs	r3, #0	@ tmp130,
 783 026e 0593     		str	r3, [sp, #20]	@ tmp130, press_times
 178:code/main.c   ****   uint32_t wheel_1, wheel_2, wheel_3;
 179:code/main.c   ****   uint32_t wheel_f_bcd;
 180:code/main.c   **** 
 181:code/main.c   ****   check_time_stop();
 784              		.loc 1 181 0
 785 0270 FFF7FEFF 		bl	check_time_stop	@
 182:code/main.c   **** 
 183:code/main.c   ****   wheel_f_bcd = int2bcd(wheel);
ARM GAS  /tmp/ccLwwf6o.s 			page 18


 786              		.loc 1 183 0
 787 0274 404B     		ldr	r3, .L81	@ tmp131,
 788 0276 1B68     		ldr	r3, [r3]	@ D.4724, wheel
 789 0278 1800     		movs	r0, r3	@, D.4724
 790 027a FFF7FEFF 		bl	int2bcd	@
 791 027e 0300     		movs	r3, r0	@ tmp132,
 792 0280 0193     		str	r3, [sp, #4]	@ tmp132, wheel_f_bcd
 184:code/main.c   ****   display_segment(0xE, wheel_f_bcd, 0);
 793              		.loc 1 184 0
 794 0282 019B     		ldr	r3, [sp, #4]	@ tmp133, wheel_f_bcd
 795 0284 0022     		movs	r2, #0	@,
 796 0286 1900     		movs	r1, r3	@, tmp133
 797 0288 0E20     		movs	r0, #14	@,
 798 028a FFF7FEFF 		bl	display_segment	@
 799              	.L79:
 185:code/main.c   **** 
 186:code/main.c   ****   while (1){
 187:code/main.c   **** 
 188:code/main.c   ****     wheel_3 = wheel / 100;
 800              		.loc 1 188 0
 801 028e 3A4B     		ldr	r3, .L81	@ tmp134,
 802 0290 1B68     		ldr	r3, [r3]	@ D.4724, wheel
 803 0292 6421     		movs	r1, #100	@,
 804 0294 1800     		movs	r0, r3	@, D.4724
 805 0296 FFF7FEFF 		bl	__aeabi_uidiv	@
 806 029a 0300     		movs	r3, r0	@ tmp137,
 807 029c 0293     		str	r3, [sp, #8]	@ tmp137, wheel_3
 189:code/main.c   ****     wheel_2 = (wheel - wheel_3 * 100) / 10;
 808              		.loc 1 189 0
 809 029e 364B     		ldr	r3, .L81	@ tmp138,
 810 02a0 1A68     		ldr	r2, [r3]	@ D.4724, wheel
 811 02a2 029B     		ldr	r3, [sp, #8]	@ tmp139, wheel_3
 812 02a4 6421     		movs	r1, #100	@ tmp140,
 813 02a6 4B43     		muls	r3, r1	@ D.4724, tmp140
 814 02a8 D31A     		subs	r3, r2, r3	@ D.4724, D.4724, D.4724
 815 02aa 0A21     		movs	r1, #10	@,
 816 02ac 1800     		movs	r0, r3	@, D.4724
 817 02ae FFF7FEFF 		bl	__aeabi_uidiv	@
 818 02b2 0300     		movs	r3, r0	@ tmp143,
 819 02b4 0393     		str	r3, [sp, #12]	@ tmp143, wheel_2
 190:code/main.c   ****     wheel_1 = (wheel - wheel_3 * 100) - (wheel_2 * 10);
 820              		.loc 1 190 0
 821 02b6 304B     		ldr	r3, .L81	@ tmp144,
 822 02b8 1A68     		ldr	r2, [r3]	@ D.4724, wheel
 823 02ba 029B     		ldr	r3, [sp, #8]	@ tmp145, wheel_3
 824 02bc 6421     		movs	r1, #100	@ tmp146,
 825 02be 4B43     		muls	r3, r1	@ D.4724, tmp146
 826 02c0 D11A     		subs	r1, r2, r3	@ D.4724, D.4724, D.4724
 827 02c2 039A     		ldr	r2, [sp, #12]	@ tmp147, wheel_2
 828 02c4 1300     		movs	r3, r2	@ tmp148, tmp147
 829 02c6 9B00     		lsls	r3, r3, #2	@ tmp148, tmp148,
 830 02c8 9B18     		adds	r3, r3, r2	@ tmp148, tmp148, tmp147
 831 02ca 5B00     		lsls	r3, r3, #1	@ tmp149, tmp148,
 832 02cc CB1A     		subs	r3, r1, r3	@ tmp150, D.4724, D.4724
 833 02ce 0493     		str	r3, [sp, #16]	@ tmp150, wheel_1
 191:code/main.c   **** 
 192:code/main.c   ****     if (check_button()) {
ARM GAS  /tmp/ccLwwf6o.s 			page 19


 834              		.loc 1 192 0
 835 02d0 FFF7FEFF 		bl	check_button	@
 836 02d4 031E     		subs	r3, r0, #0	@ tmp151,,
 837 02d6 DAD0     		beq	.L79	@,
 193:code/main.c   ****           
 194:code/main.c   ****       if (press_mode()) {
 838              		.loc 1 194 0
 839 02d8 FFF7FEFF 		bl	press_mode	@
 840 02dc 031E     		subs	r3, r0, #0	@ tmp153,,
 841 02de 06D0     		beq	.L74	@,
 195:code/main.c   **** 
 196:code/main.c   ****         press_times ++;
 842              		.loc 1 196 0
 843 02e0 059B     		ldr	r3, [sp, #20]	@ tmp156, press_times
 844 02e2 0133     		adds	r3, r3, #1	@ tmp155,
 845 02e4 0593     		str	r3, [sp, #20]	@ tmp155, press_times
 197:code/main.c   ****         if (press_times == 3) {
 846              		.loc 1 197 0
 847 02e6 059B     		ldr	r3, [sp, #20]	@ tmp157, press_times
 848 02e8 032B     		cmp	r3, #3	@ tmp157,
 849 02ea D0D1     		bne	.L79	@,
 198:code/main.c   **** 
 199:code/main.c   ****           return;
 850              		.loc 1 199 0
 851 02ec 42E0     		b	.L80	@
 852              	.L74:
 200:code/main.c   ****              
 201:code/main.c   ****         }
 202:code/main.c   **** 
 203:code/main.c   ****       } else if(press_trip()) {
 853              		.loc 1 203 0
 854 02ee FFF7FEFF 		bl	press_trip	@
 855 02f2 031E     		subs	r3, r0, #0	@ tmp158,,
 856 02f4 CBD0     		beq	.L79	@,
 204:code/main.c   **** 
 205:code/main.c   ****         if (press_times == 0) {
 857              		.loc 1 205 0
 858 02f6 059B     		ldr	r3, [sp, #20]	@ tmp160, press_times
 859 02f8 002B     		cmp	r3, #0	@ tmp160,
 860 02fa 08D1     		bne	.L76	@,
 206:code/main.c   ****             
 207:code/main.c   ****             wheel_3 = (wheel_3 + 1) % 10;
 861              		.loc 1 207 0
 862 02fc 029B     		ldr	r3, [sp, #8]	@ tmp161, wheel_3
 863 02fe 0133     		adds	r3, r3, #1	@ D.4724,
 864 0300 0A21     		movs	r1, #10	@,
 865 0302 1800     		movs	r0, r3	@, D.4724
 866 0304 FFF7FEFF 		bl	__aeabi_uidivmod	@
 867 0308 0B00     		movs	r3, r1	@ tmp166,
 868 030a 0293     		str	r3, [sp, #8]	@ tmp166, wheel_3
 869 030c 16E0     		b	.L77	@
 870              	.L76:
 208:code/main.c   ****                 
 209:code/main.c   ****         } else if (press_times == 1) {
 871              		.loc 1 209 0
 872 030e 059B     		ldr	r3, [sp, #20]	@ tmp167, press_times
 873 0310 012B     		cmp	r3, #1	@ tmp167,
ARM GAS  /tmp/ccLwwf6o.s 			page 20


 874 0312 08D1     		bne	.L78	@,
 210:code/main.c   ****                
 211:code/main.c   ****             wheel_2 = (wheel_2 + 1) % 10;               
 875              		.loc 1 211 0
 876 0314 039B     		ldr	r3, [sp, #12]	@ tmp168, wheel_2
 877 0316 0133     		adds	r3, r3, #1	@ D.4724,
 878 0318 0A21     		movs	r1, #10	@,
 879 031a 1800     		movs	r0, r3	@, D.4724
 880 031c FFF7FEFF 		bl	__aeabi_uidivmod	@
 881 0320 0B00     		movs	r3, r1	@ tmp173,
 882 0322 0393     		str	r3, [sp, #12]	@ tmp173, wheel_2
 883 0324 0AE0     		b	.L77	@
 884              	.L78:
 212:code/main.c   **** 
 213:code/main.c   ****         } else if (press_times == 2) {                
 885              		.loc 1 213 0
 886 0326 059B     		ldr	r3, [sp, #20]	@ tmp174, press_times
 887 0328 022B     		cmp	r3, #2	@ tmp174,
 888 032a 07D1     		bne	.L77	@,
 214:code/main.c   ****                 
 215:code/main.c   ****             wheel_1 = (wheel_1 + 1) % 10;
 889              		.loc 1 215 0
 890 032c 049B     		ldr	r3, [sp, #16]	@ tmp175, wheel_1
 891 032e 0133     		adds	r3, r3, #1	@ D.4724,
 892 0330 0A21     		movs	r1, #10	@,
 893 0332 1800     		movs	r0, r3	@, D.4724
 894 0334 FFF7FEFF 		bl	__aeabi_uidivmod	@
 895 0338 0B00     		movs	r3, r1	@ tmp180,
 896 033a 0493     		str	r3, [sp, #16]	@ tmp180, wheel_1
 897              	.L77:
 216:code/main.c   ****                 
 217:code/main.c   ****         }
 218:code/main.c   ****             
 219:code/main.c   ****         wheel = wheel_3 * 100 + wheel_2 * 10 + wheel_1;
 898              		.loc 1 219 0
 899 033c 029B     		ldr	r3, [sp, #8]	@ tmp181, wheel_3
 900 033e 6422     		movs	r2, #100	@ tmp182,
 901 0340 5A43     		muls	r2, r3	@ tmp182, tmp181
 902 0342 1100     		movs	r1, r2	@ D.4724, tmp182
 903 0344 039A     		ldr	r2, [sp, #12]	@ tmp183, wheel_2
 904 0346 1300     		movs	r3, r2	@ tmp184, tmp183
 905 0348 9B00     		lsls	r3, r3, #2	@ tmp184, tmp184,
 906 034a 9B18     		adds	r3, r3, r2	@ tmp184, tmp184, tmp183
 907 034c 5B00     		lsls	r3, r3, #1	@ tmp185, tmp184,
 908 034e CA18     		adds	r2, r1, r3	@ D.4724, D.4724, D.4724
 909 0350 049B     		ldr	r3, [sp, #16]	@ tmp186, wheel_1
 910 0352 D218     		adds	r2, r2, r3	@ D.4724, D.4724, tmp186
 911 0354 084B     		ldr	r3, .L81	@ tmp187,
 912 0356 1A60     		str	r2, [r3]	@ D.4724, wheel
 220:code/main.c   ****         wheel_f_bcd = int2bcd(wheel);
 913              		.loc 1 220 0
 914 0358 074B     		ldr	r3, .L81	@ tmp188,
 915 035a 1B68     		ldr	r3, [r3]	@ D.4724, wheel
 916 035c 1800     		movs	r0, r3	@, D.4724
 917 035e FFF7FEFF 		bl	int2bcd	@
 918 0362 0300     		movs	r3, r0	@ tmp189,
 919 0364 0193     		str	r3, [sp, #4]	@ tmp189, wheel_f_bcd
ARM GAS  /tmp/ccLwwf6o.s 			page 21


 221:code/main.c   ****         display_segment(0xE, wheel_f_bcd, 0);
 920              		.loc 1 221 0
 921 0366 019B     		ldr	r3, [sp, #4]	@ tmp190, wheel_f_bcd
 922 0368 0022     		movs	r2, #0	@,
 923 036a 1900     		movs	r1, r3	@, tmp190
 924 036c 0E20     		movs	r0, #14	@,
 925 036e FFF7FEFF 		bl	display_segment	@
 222:code/main.c   ****           //get_setting_image();
 223:code/main.c   ****           //display_oled();
 224:code/main.c   **** 
 225:code/main.c   ****       }
 226:code/main.c   **** 
 227:code/main.c   ****     }
 228:code/main.c   **** 
 229:code/main.c   ****   }  
 926              		.loc 1 229 0
 927 0372 8CE7     		b	.L79	@
 928              	.L80:
 230:code/main.c   **** 
 231:code/main.c   **** }
 929              		.loc 1 231 0
 930 0374 07B0     		add	sp, sp, #28	@,,
 931              		@ sp needed	@
 932 0376 00BD     		pop	{pc}
 933              	.L82:
 934              		.align	2
 935              	.L81:
 936 0378 00000000 		.word	wheel
 937              		.cfi_endproc
 938              	.LFE16:
 939              		.size	wait_for_setting, .-wait_for_setting
 940              		.global	__aeabi_fcmplt
 941              		.global	__aeabi_fcmpgt
 942              		.align	2
 943              		.global	check_speed
 944              		.code	16
 945              		.thumb_func
 946              		.type	check_speed, %function
 947              	check_speed:
 948              	.LFB17:
 232:code/main.c   **** 
 233:code/main.c   **** void check_speed(void){
 949              		.loc 1 233 0
 950              		.cfi_startproc
 951              		@ args = 0, pretend = 0, frame = 0
 952              		@ frame_needed = 0, uses_anonymous_args = 0
 953 037c 10B5     		push	{r4, lr}	@
 954              	.LCFI7:
 955              		.cfi_def_cfa_offset 8
 956              		.cfi_offset 4, -8
 957              		.cfi_offset 14, -4
 234:code/main.c   **** 
 235:code/main.c   ****   if (max_speed < speed)
 958              		.loc 1 235 0
 959 037e 0F4B     		ldr	r3, .L93	@ tmp114,
 960 0380 1A68     		ldr	r2, [r3]	@ D.4726, max_speed
 961 0382 0F4B     		ldr	r3, .L93+4	@ tmp115,
ARM GAS  /tmp/ccLwwf6o.s 			page 22


 962 0384 1B68     		ldr	r3, [r3]	@ D.4726, speed
 963 0386 191C     		adds	r1, r3, #0	@, D.4726
 964 0388 101C     		adds	r0, r2, #0	@, D.4726
 965 038a FFF7FEFF 		bl	__aeabi_fcmplt	@
 966 038e 031E     		subs	r3, r0, #0	@ tmp116,,
 967 0390 03D0     		beq	.L84	@,
 236:code/main.c   ****       max_speed = speed;
 968              		.loc 1 236 0
 969 0392 0B4B     		ldr	r3, .L93+4	@ tmp117,
 970 0394 1A68     		ldr	r2, [r3]	@ D.4726, speed
 971 0396 094B     		ldr	r3, .L93	@ tmp118,
 972 0398 1A60     		str	r2, [r3]	@ D.4726, max_speed
 973              	.L84:
 237:code/main.c   ****   if (max_speed > 40)
 974              		.loc 1 237 0
 975 039a 084B     		ldr	r3, .L93	@ tmp119,
 976 039c 1B68     		ldr	r3, [r3]	@ D.4726, max_speed
 977 039e 0949     		ldr	r1, .L93+8	@,
 978 03a0 181C     		adds	r0, r3, #0	@, D.4726
 979 03a2 FFF7FEFF 		bl	__aeabi_fcmpgt	@
 980 03a6 031E     		subs	r3, r0, #0	@ tmp120,,
 981 03a8 03D0     		beq	.L92	@,
 238:code/main.c   ****       speed_red = true;
 982              		.loc 1 238 0
 983 03aa 074B     		ldr	r3, .L93+12	@ tmp121,
 984 03ac 0122     		movs	r2, #1	@ tmp122,
 985 03ae 1A70     		strb	r2, [r3]	@ tmp123, speed_red
 239:code/main.c   ****   else
 240:code/main.c   ****       speed_red = false;
 241:code/main.c   ****   return;
 986              		.loc 1 241 0
 987 03b0 03E0     		b	.L83	@
 988              	.L92:
 240:code/main.c   ****   return;
 989              		.loc 1 240 0
 990 03b2 054B     		ldr	r3, .L93+12	@ tmp124,
 991 03b4 0022     		movs	r2, #0	@ tmp125,
 992 03b6 1A70     		strb	r2, [r3]	@ tmp126, speed_red
 993              		.loc 1 241 0
 994 03b8 C046     		nop
 995              	.L83:
 242:code/main.c   **** 
 243:code/main.c   **** }
 996              		.loc 1 243 0
 997              		@ sp needed	@
 998 03ba 10BD     		pop	{r4, pc}
 999              	.L94:
 1000              		.align	2
 1001              	.L93:
 1002 03bc 00000000 		.word	max_speed
 1003 03c0 00000000 		.word	speed
 1004 03c4 00002042 		.word	1109393408
 1005 03c8 00000000 		.word	speed_red
 1006              		.cfi_endproc
 1007              	.LFE17:
 1008              		.size	check_speed, .-check_speed
 1009              		.global	__aeabi_ui2f
ARM GAS  /tmp/ccLwwf6o.s 			page 23


 1010              		.global	__aeabi_fdiv
 1011              		.global	__aeabi_f2d
 1012              		.global	__aeabi_dadd
 1013              		.global	__aeabi_d2f
 1014              		.global	__aeabi_dcmpgt
 1015              		.align	2
 1016              		.global	get_distance
 1017              		.code	16
 1018              		.thumb_func
 1019              		.type	get_distance, %function
 1020              	get_distance:
 1021              	.LFB18:
 244:code/main.c   **** 
 245:code/main.c   **** float get_distance(uint32_t bike_fork, uint32_t wheel){
 1022              		.loc 1 245 0
 1023              		.cfi_startproc
 1024              		@ args = 0, pretend = 0, frame = 24
 1025              		@ frame_needed = 0, uses_anonymous_args = 0
 1026 03cc 10B5     		push	{r4, lr}	@
 1027              	.LCFI8:
 1028              		.cfi_def_cfa_offset 8
 1029              		.cfi_offset 4, -8
 1030              		.cfi_offset 14, -4
 1031 03ce 86B0     		sub	sp, sp, #24	@,,
 1032              	.LCFI9:
 1033              		.cfi_def_cfa_offset 32
 1034 03d0 0190     		str	r0, [sp, #4]	@ bike_fork, bike_fork
 1035 03d2 0091     		str	r1, [sp]	@ wheel, wheel
 246:code/main.c   **** 
 247:code/main.c   ****   float f_distance, f_distance_mm, f_distance_m;
 248:code/main.c   **** 
 249:code/main.c   ****   f_distance_mm = bike_fork * wheel;
 1036              		.loc 1 249 0
 1037 03d4 019B     		ldr	r3, [sp, #4]	@ tmp117, bike_fork
 1038 03d6 009A     		ldr	r2, [sp]	@ tmp118, wheel
 1039 03d8 5343     		muls	r3, r2	@ D.4728, tmp118
 1040 03da 1800     		movs	r0, r3	@, D.4728
 1041 03dc FFF7FEFF 		bl	__aeabi_ui2f	@
 1042 03e0 031C     		adds	r3, r0, #0	@ tmp119,
 1043 03e2 0593     		str	r3, [sp, #20]	@ tmp119, f_distance_mm
 250:code/main.c   ****   f_distance_m = f_distance_mm / 1000;
 1044              		.loc 1 250 0
 1045 03e4 1549     		ldr	r1, .L101	@,
 1046 03e6 0598     		ldr	r0, [sp, #20]	@, f_distance_mm
 1047 03e8 FFF7FEFF 		bl	__aeabi_fdiv	@
 1048 03ec 031C     		adds	r3, r0, #0	@ tmp120,
 1049 03ee 0493     		str	r3, [sp, #16]	@ tmp120, f_distance_m
 251:code/main.c   ****   f_distance = f_distance_m / 1000 + 0.01;
 1050              		.loc 1 251 0
 1051 03f0 1249     		ldr	r1, .L101	@,
 1052 03f2 0498     		ldr	r0, [sp, #16]	@, f_distance_m
 1053 03f4 FFF7FEFF 		bl	__aeabi_fdiv	@
 1054 03f8 031C     		adds	r3, r0, #0	@ tmp121,
 1055 03fa 181C     		adds	r0, r3, #0	@, D.4727
 1056 03fc FFF7FEFF 		bl	__aeabi_f2d	@
 1057 0400 0F4A     		ldr	r2, .L101+4	@,
 1058 0402 104B     		ldr	r3, .L101+8	@,
ARM GAS  /tmp/ccLwwf6o.s 			page 24


 1059 0404 FFF7FEFF 		bl	__aeabi_dadd	@
 1060 0408 0300     		movs	r3, r0	@ tmp122,
 1061 040a 0C00     		movs	r4, r1	@,
 1062 040c 1800     		movs	r0, r3	@, D.4729
 1063 040e 2100     		movs	r1, r4	@, D.4729
 1064 0410 FFF7FEFF 		bl	__aeabi_d2f	@
 1065 0414 031C     		adds	r3, r0, #0	@ tmp123,
 1066 0416 0393     		str	r3, [sp, #12]	@ tmp123, f_distance
 252:code/main.c   **** 
 253:code/main.c   ****   if (f_distance > 99.99) {
 1067              		.loc 1 253 0
 1068 0418 0398     		ldr	r0, [sp, #12]	@, f_distance
 1069 041a FFF7FEFF 		bl	__aeabi_f2d	@
 1070 041e 0A4A     		ldr	r2, .L101+12	@,
 1071 0420 0A4B     		ldr	r3, .L101+16	@,
 1072 0422 FFF7FEFF 		bl	__aeabi_dcmpgt	@
 1073 0426 031E     		subs	r3, r0, #0	@ tmp124,,
 1074 0428 03D0     		beq	.L100	@,
 254:code/main.c   **** 
 255:code/main.c   ****     return f_distance = 99.99;
 1075              		.loc 1 255 0
 1076 042a 094B     		ldr	r3, .L101+20	@ tmp125,
 1077 042c 0393     		str	r3, [sp, #12]	@ tmp125, f_distance
 1078 042e 039B     		ldr	r3, [sp, #12]	@ D.4727, f_distance
 1079 0430 00E0     		b	.L98	@
 1080              	.L100:
 256:code/main.c   **** 
 257:code/main.c   ****   } else {
 258:code/main.c   **** 
 259:code/main.c   ****     return f_distance;
 1081              		.loc 1 259 0
 1082 0432 039B     		ldr	r3, [sp, #12]	@ D.4727, f_distance
 1083              	.L98:
 260:code/main.c   **** 
 261:code/main.c   ****   }
 262:code/main.c   **** 
 263:code/main.c   **** }
 1084              		.loc 1 263 0
 1085 0434 181C     		adds	r0, r3, #0	@, <retval>
 1086 0436 06B0     		add	sp, sp, #24	@,,
 1087              		@ sp needed	@
 1088 0438 10BD     		pop	{r4, pc}
 1089              	.L102:
 1090 043a C046     		.align	2
 1091              	.L101:
 1092 043c 00007A44 		.word	1148846080
 1093 0440 7B14AE47 		.word	1202590843
 1094 0444 E17A843F 		.word	1065646817
 1095 0448 8FC2F528 		.word	687194767
 1096 044c 5CFF5840 		.word	1079574364
 1097 0450 E1FAC742 		.word	1120402145
 1098              		.cfi_endproc
 1099              	.LFE18:
 1100              		.size	get_distance, .-get_distance
 1101              		.global	__aeabi_fmul
 1102              		.align	2
 1103              		.global	get_speed
ARM GAS  /tmp/ccLwwf6o.s 			page 25


 1104              		.code	16
 1105              		.thumb_func
 1106              		.type	get_speed, %function
 1107              	get_speed:
 1108              	.LFB19:
 264:code/main.c   **** 
 265:code/main.c   **** float get_speed(float distance, uint32_t time){
 1109              		.loc 1 265 0
 1110              		.cfi_startproc
 1111              		@ args = 0, pretend = 0, frame = 16
 1112              		@ frame_needed = 0, uses_anonymous_args = 0
 1113 0454 10B5     		push	{r4, lr}	@
 1114              	.LCFI10:
 1115              		.cfi_def_cfa_offset 8
 1116              		.cfi_offset 4, -8
 1117              		.cfi_offset 14, -4
 1118 0456 84B0     		sub	sp, sp, #16	@,,
 1119              	.LCFI11:
 1120              		.cfi_def_cfa_offset 24
 1121 0458 0190     		str	r0, [sp, #4]	@ distance, distance
 1122 045a 0091     		str	r1, [sp]	@ time, time
 266:code/main.c   **** 
 267:code/main.c   ****   float f_speed;
 268:code/main.c   **** 
 269:code/main.c   ****   if (time == 0) {
 1123              		.loc 1 269 0
 1124 045c 009B     		ldr	r3, [sp]	@ tmp115, time
 1125 045e 002B     		cmp	r3, #0	@ tmp115,
 1126 0460 02D1     		bne	.L104	@,
 270:code/main.c   **** 
 271:code/main.c   ****     f_speed = 0;
 1127              		.loc 1 271 0
 1128 0462 0023     		movs	r3, #0	@ tmp116,
 1129 0464 0393     		str	r3, [sp, #12]	@ tmp116, f_speed
 1130 0466 0FE0     		b	.L105	@
 1131              	.L104:
 272:code/main.c   **** 
 273:code/main.c   ****   } else {
 274:code/main.c   **** 
 275:code/main.c   ****     f_speed = (distance * 3600) / time;
 1132              		.loc 1 275 0
 1133 0468 1049     		ldr	r1, .L111	@,
 1134 046a 0198     		ldr	r0, [sp, #4]	@, distance
 1135 046c FFF7FEFF 		bl	__aeabi_fmul	@
 1136 0470 031C     		adds	r3, r0, #0	@ tmp117,
 1137 0472 1C1C     		adds	r4, r3, #0	@ D.4730, tmp117
 1138 0474 0098     		ldr	r0, [sp]	@, time
 1139 0476 FFF7FEFF 		bl	__aeabi_ui2f	@
 1140 047a 031C     		adds	r3, r0, #0	@ D.4730,
 1141 047c 191C     		adds	r1, r3, #0	@, D.4730
 1142 047e 201C     		adds	r0, r4, #0	@, D.4730
 1143 0480 FFF7FEFF 		bl	__aeabi_fdiv	@
 1144 0484 031C     		adds	r3, r0, #0	@ tmp118,
 1145 0486 0393     		str	r3, [sp, #12]	@ tmp118, f_speed
 1146              	.L105:
 276:code/main.c   **** 
 277:code/main.c   ****   }
ARM GAS  /tmp/ccLwwf6o.s 			page 26


 278:code/main.c   ****   
 279:code/main.c   ****   if (f_speed > 99.99) {
 1147              		.loc 1 279 0
 1148 0488 0398     		ldr	r0, [sp, #12]	@, f_speed
 1149 048a FFF7FEFF 		bl	__aeabi_f2d	@
 1150 048e 084A     		ldr	r2, .L111+4	@,
 1151 0490 084B     		ldr	r3, .L111+8	@,
 1152 0492 FFF7FEFF 		bl	__aeabi_dcmpgt	@
 1153 0496 031E     		subs	r3, r0, #0	@ tmp119,,
 1154 0498 03D0     		beq	.L110	@,
 280:code/main.c   **** 
 281:code/main.c   ****     return f_speed = 99.99;
 1155              		.loc 1 281 0
 1156 049a 074B     		ldr	r3, .L111+12	@ tmp120,
 1157 049c 0393     		str	r3, [sp, #12]	@ tmp120, f_speed
 1158 049e 039B     		ldr	r3, [sp, #12]	@ D.4730, f_speed
 1159 04a0 00E0     		b	.L108	@
 1160              	.L110:
 282:code/main.c   **** 
 283:code/main.c   ****   } else {
 284:code/main.c   **** 
 285:code/main.c   ****     return f_speed;
 1161              		.loc 1 285 0
 1162 04a2 039B     		ldr	r3, [sp, #12]	@ D.4730, f_speed
 1163              	.L108:
 286:code/main.c   **** 
 287:code/main.c   ****   }
 288:code/main.c   **** 
 289:code/main.c   **** }
 1164              		.loc 1 289 0
 1165 04a4 181C     		adds	r0, r3, #0	@, <retval>
 1166 04a6 04B0     		add	sp, sp, #16	@,,
 1167              		@ sp needed	@
 1168 04a8 10BD     		pop	{r4, pc}
 1169              	.L112:
 1170 04aa C046     		.align	2
 1171              	.L111:
 1172 04ac 00006145 		.word	1163984896
 1173 04b0 8FC2F528 		.word	687194767
 1174 04b4 5CFF5840 		.word	1079574364
 1175 04b8 E1FAC742 		.word	1120402145
 1176              		.cfi_endproc
 1177              	.LFE19:
 1178              		.size	get_speed, .-get_speed
 1179              		.global	__aeabi_f2uiz
 1180              		.align	2
 1181              		.global	get_cadence
 1182              		.code	16
 1183              		.thumb_func
 1184              		.type	get_cadence, %function
 1185              	get_cadence:
 1186              	.LFB20:
 290:code/main.c   **** 
 291:code/main.c   **** uint32_t get_cadence(uint32_t crank, uint32_t time){
 1187              		.loc 1 291 0
 1188              		.cfi_startproc
 1189              		@ args = 0, pretend = 0, frame = 16
ARM GAS  /tmp/ccLwwf6o.s 			page 27


 1190              		@ frame_needed = 0, uses_anonymous_args = 0
 1191 04bc 00B5     		push	{lr}	@
 1192              	.LCFI12:
 1193              		.cfi_def_cfa_offset 4
 1194              		.cfi_offset 14, -4
 1195 04be 85B0     		sub	sp, sp, #20	@,,
 1196              	.LCFI13:
 1197              		.cfi_def_cfa_offset 24
 1198 04c0 0190     		str	r0, [sp, #4]	@ crank, crank
 1199 04c2 0091     		str	r1, [sp]	@ time, time
 292:code/main.c   **** 
 293:code/main.c   ****   float cadence, cadence_5;
 294:code/main.c   **** 
 295:code/main.c   ****   if (time == 0) {
 1200              		.loc 1 295 0
 1201 04c4 009B     		ldr	r3, [sp]	@ tmp116, time
 1202 04c6 002B     		cmp	r3, #0	@ tmp116,
 1203 04c8 02D1     		bne	.L114	@,
 296:code/main.c   **** 
 297:code/main.c   ****     cadence = 0;
 1204              		.loc 1 297 0
 1205 04ca 0023     		movs	r3, #0	@ tmp117,
 1206 04cc 0393     		str	r3, [sp, #12]	@ tmp117, cadence
 1207 04ce 22E0     		b	.L115	@
 1208              	.L114:
 298:code/main.c   **** 
 299:code/main.c   ****   } else {
 300:code/main.c   **** 
 301:code/main.c   ****     cadence = (crank * 60) / time;
 1209              		.loc 1 301 0
 1210 04d0 019A     		ldr	r2, [sp, #4]	@ tmp118, crank
 1211 04d2 1300     		movs	r3, r2	@ tmp119, tmp118
 1212 04d4 1B01     		lsls	r3, r3, #4	@ tmp119, tmp119,
 1213 04d6 9B1A     		subs	r3, r3, r2	@ tmp119, tmp119, tmp118
 1214 04d8 9B00     		lsls	r3, r3, #2	@ tmp120, tmp119,
 1215 04da 0099     		ldr	r1, [sp]	@, time
 1216 04dc 1800     		movs	r0, r3	@, D.4733
 1217 04de FFF7FEFF 		bl	__aeabi_uidiv	@
 1218 04e2 0300     		movs	r3, r0	@ tmp123,
 1219 04e4 1800     		movs	r0, r3	@, D.4733
 1220 04e6 FFF7FEFF 		bl	__aeabi_ui2f	@
 1221 04ea 031C     		adds	r3, r0, #0	@ tmp124,
 1222 04ec 0393     		str	r3, [sp, #12]	@ tmp124, cadence
 302:code/main.c   ****     cadence_5 = cadence / 5;
 1223              		.loc 1 302 0
 1224 04ee 1249     		ldr	r1, .L121	@,
 1225 04f0 0398     		ldr	r0, [sp, #12]	@, cadence
 1226 04f2 FFF7FEFF 		bl	__aeabi_fdiv	@
 1227 04f6 031C     		adds	r3, r0, #0	@ tmp125,
 1228 04f8 0293     		str	r3, [sp, #8]	@ tmp125, cadence_5
 303:code/main.c   ****     cadence = (uint32_t) (5 * cadence_5);
 1229              		.loc 1 303 0
 1230 04fa 0F49     		ldr	r1, .L121	@,
 1231 04fc 0298     		ldr	r0, [sp, #8]	@, cadence_5
 1232 04fe FFF7FEFF 		bl	__aeabi_fmul	@
 1233 0502 031C     		adds	r3, r0, #0	@ tmp126,
 1234 0504 181C     		adds	r0, r3, #0	@, D.4734
ARM GAS  /tmp/ccLwwf6o.s 			page 28


 1235 0506 FFF7FEFF 		bl	__aeabi_f2uiz	@
 1236 050a 0300     		movs	r3, r0	@ D.4733,
 1237 050c 1800     		movs	r0, r3	@, D.4733
 1238 050e FFF7FEFF 		bl	__aeabi_ui2f	@
 1239 0512 031C     		adds	r3, r0, #0	@ tmp127,
 1240 0514 0393     		str	r3, [sp, #12]	@ tmp127, cadence
 1241              	.L115:
 304:code/main.c   **** 
 305:code/main.c   ****   }
 306:code/main.c   **** 
 307:code/main.c   ****   if (cadence > 999) {
 1242              		.loc 1 307 0
 1243 0516 0949     		ldr	r1, .L121+4	@,
 1244 0518 0398     		ldr	r0, [sp, #12]	@, cadence
 1245 051a FFF7FEFF 		bl	__aeabi_fcmpgt	@
 1246 051e 031E     		subs	r3, r0, #0	@ tmp128,,
 1247 0520 03D0     		beq	.L120	@,
 308:code/main.c   **** 
 309:code/main.c   ****     return cadence = 999;
 1248              		.loc 1 309 0
 1249 0522 064B     		ldr	r3, .L121+4	@ tmp129,
 1250 0524 0393     		str	r3, [sp, #12]	@ tmp129, cadence
 1251 0526 064B     		ldr	r3, .L121+8	@ D.4732,
 1252 0528 03E0     		b	.L118	@
 1253              	.L120:
 310:code/main.c   **** 
 311:code/main.c   ****   } else {
 312:code/main.c   **** 
 313:code/main.c   ****     return cadence;
 1254              		.loc 1 313 0
 1255 052a 0398     		ldr	r0, [sp, #12]	@, cadence
 1256 052c FFF7FEFF 		bl	__aeabi_f2uiz	@
 1257 0530 0300     		movs	r3, r0	@ D.4732,
 1258              	.L118:
 314:code/main.c   **** 
 315:code/main.c   ****   }
 316:code/main.c   **** 
 317:code/main.c   **** }
 1259              		.loc 1 317 0
 1260 0532 1800     		movs	r0, r3	@, <retval>
 1261 0534 05B0     		add	sp, sp, #20	@,,
 1262              		@ sp needed	@
 1263 0536 00BD     		pop	{pc}
 1264              	.L122:
 1265              		.align	2
 1266              	.L121:
 1267 0538 0000A040 		.word	1084227584
 1268 053c 00C07944 		.word	1148829696
 1269 0540 E7030000 		.word	999
 1270              		.cfi_endproc
 1271              	.LFE20:
 1272              		.size	get_cadence, .-get_cadence
 1273              		.align	2
 1274              		.global	refresh_segment
 1275              		.code	16
 1276              		.thumb_func
 1277              		.type	refresh_segment, %function
ARM GAS  /tmp/ccLwwf6o.s 			page 29


 1278              	refresh_segment:
 1279              	.LFB21:
 318:code/main.c   **** 
 319:code/main.c   **** void refresh_segment(void) {
 1280              		.loc 1 319 0
 1281              		.cfi_startproc
 1282              		@ args = 0, pretend = 0, frame = 0
 1283              		@ frame_needed = 0, uses_anonymous_args = 0
 1284 0544 10B5     		push	{r4, lr}	@
 1285              	.LCFI14:
 1286              		.cfi_def_cfa_offset 8
 1287              		.cfi_offset 4, -8
 1288              		.cfi_offset 14, -4
 320:code/main.c   **** 
 321:code/main.c   ****   if (mode == 0xA){
 1289              		.loc 1 321 0
 1290 0546 1C4B     		ldr	r3, .L129	@ tmp125,
 1291 0548 1B68     		ldr	r3, [r3]	@ D.4735, mode
 1292 054a 0A2B     		cmp	r3, #10	@ D.4735,
 1293 054c 09D1     		bne	.L124	@,
 322:code/main.c   **** 
 323:code/main.c   ****     display_segment(mode, total_distance_f_bcd, total_distance_b_bcd);
 1294              		.loc 1 323 0
 1295 054e 1A4B     		ldr	r3, .L129	@ tmp126,
 1296 0550 1868     		ldr	r0, [r3]	@ D.4735, mode
 1297 0552 1A4B     		ldr	r3, .L129+4	@ tmp127,
 1298 0554 1968     		ldr	r1, [r3]	@ D.4735, total_distance_f_bcd
 1299 0556 1A4B     		ldr	r3, .L129+8	@ tmp128,
 1300 0558 1B68     		ldr	r3, [r3]	@ D.4735, total_distance_b_bcd
 1301 055a 1A00     		movs	r2, r3	@, D.4735
 1302 055c FFF7FEFF 		bl	display_segment	@
 324:code/main.c   **** 
 325:code/main.c   ****   } else if (mode == 0xB) {
 326:code/main.c   **** 
 327:code/main.c   ****     display_segment(mode, time_h_bcd, time_m_bcd);
 328:code/main.c   ****     
 329:code/main.c   **** 
 330:code/main.c   ****   } else if (mode == 0xC) {
 331:code/main.c   **** 
 332:code/main.c   ****     display_segment(mode, speed_f_bcd, speed_b_bcd);
 333:code/main.c   ****     
 334:code/main.c   **** 
 335:code/main.c   ****   } else if (mode == 0xD){
 336:code/main.c   **** 
 337:code/main.c   ****     display_segment(mode, cadence_bcd, 0);
 338:code/main.c   **** 
 339:code/main.c   ****   }
 340:code/main.c   **** 
 341:code/main.c   **** }
 1303              		.loc 1 341 0
 1304 0560 27E0     		b	.L128	@
 1305              	.L124:
 325:code/main.c   **** 
 1306              		.loc 1 325 0
 1307 0562 154B     		ldr	r3, .L129	@ tmp129,
 1308 0564 1B68     		ldr	r3, [r3]	@ D.4735, mode
 1309 0566 0B2B     		cmp	r3, #11	@ D.4735,
ARM GAS  /tmp/ccLwwf6o.s 			page 30


 1310 0568 09D1     		bne	.L126	@,
 327:code/main.c   ****     
 1311              		.loc 1 327 0
 1312 056a 134B     		ldr	r3, .L129	@ tmp130,
 1313 056c 1868     		ldr	r0, [r3]	@ D.4735, mode
 1314 056e 154B     		ldr	r3, .L129+12	@ tmp131,
 1315 0570 1968     		ldr	r1, [r3]	@ D.4735, time_h_bcd
 1316 0572 154B     		ldr	r3, .L129+16	@ tmp132,
 1317 0574 1B68     		ldr	r3, [r3]	@ D.4735, time_m_bcd
 1318 0576 1A00     		movs	r2, r3	@, D.4735
 1319 0578 FFF7FEFF 		bl	display_segment	@
 1320              		.loc 1 341 0
 1321 057c 19E0     		b	.L128	@
 1322              	.L126:
 330:code/main.c   **** 
 1323              		.loc 1 330 0
 1324 057e 0E4B     		ldr	r3, .L129	@ tmp133,
 1325 0580 1B68     		ldr	r3, [r3]	@ D.4735, mode
 1326 0582 0C2B     		cmp	r3, #12	@ D.4735,
 1327 0584 09D1     		bne	.L127	@,
 332:code/main.c   ****     
 1328              		.loc 1 332 0
 1329 0586 0C4B     		ldr	r3, .L129	@ tmp134,
 1330 0588 1868     		ldr	r0, [r3]	@ D.4735, mode
 1331 058a 104B     		ldr	r3, .L129+20	@ tmp135,
 1332 058c 1968     		ldr	r1, [r3]	@ D.4735, speed_f_bcd
 1333 058e 104B     		ldr	r3, .L129+24	@ tmp136,
 1334 0590 1B68     		ldr	r3, [r3]	@ D.4735, speed_b_bcd
 1335 0592 1A00     		movs	r2, r3	@, D.4735
 1336 0594 FFF7FEFF 		bl	display_segment	@
 1337              		.loc 1 341 0
 1338 0598 0BE0     		b	.L128	@
 1339              	.L127:
 335:code/main.c   **** 
 1340              		.loc 1 335 0
 1341 059a 074B     		ldr	r3, .L129	@ tmp137,
 1342 059c 1B68     		ldr	r3, [r3]	@ D.4735, mode
 1343 059e 0D2B     		cmp	r3, #13	@ D.4735,
 1344 05a0 07D1     		bne	.L128	@,
 337:code/main.c   **** 
 1345              		.loc 1 337 0
 1346 05a2 054B     		ldr	r3, .L129	@ tmp138,
 1347 05a4 1868     		ldr	r0, [r3]	@ D.4735, mode
 1348 05a6 0B4B     		ldr	r3, .L129+28	@ tmp139,
 1349 05a8 1B68     		ldr	r3, [r3]	@ D.4735, cadence_bcd
 1350 05aa 0022     		movs	r2, #0	@,
 1351 05ac 1900     		movs	r1, r3	@, D.4735
 1352 05ae FFF7FEFF 		bl	display_segment	@
 1353              	.L128:
 1354              		.loc 1 341 0
 1355 05b2 C046     		nop
 1356              		@ sp needed	@
 1357 05b4 10BD     		pop	{r4, pc}
 1358              	.L130:
 1359 05b6 C046     		.align	2
 1360              	.L129:
 1361 05b8 00000000 		.word	mode
ARM GAS  /tmp/ccLwwf6o.s 			page 31


 1362 05bc 00000000 		.word	total_distance_f_bcd
 1363 05c0 00000000 		.word	total_distance_b_bcd
 1364 05c4 00000000 		.word	time_h_bcd
 1365 05c8 00000000 		.word	time_m_bcd
 1366 05cc 00000000 		.word	speed_f_bcd
 1367 05d0 00000000 		.word	speed_b_bcd
 1368 05d4 00000000 		.word	cadence_bcd
 1369              		.cfi_endproc
 1370              	.LFE21:
 1371              		.size	refresh_segment, .-refresh_segment
 1372              		.align	2
 1373              		.global	initiate
 1374              		.code	16
 1375              		.thumb_func
 1376              		.type	initiate, %function
 1377              	initiate:
 1378              	.LFB22:
 342:code/main.c   **** 
 343:code/main.c   **** void initiate(void) {
 1379              		.loc 1 343 0
 1380              		.cfi_startproc
 1381              		@ args = 0, pretend = 0, frame = 0
 1382              		@ frame_needed = 0, uses_anonymous_args = 0
 1383 05d8 10B5     		push	{r4, lr}	@
 1384              	.LCFI15:
 1385              		.cfi_def_cfa_offset 8
 1386              		.cfi_offset 4, -8
 1387              		.cfi_offset 14, -4
 344:code/main.c   **** 
 345:code/main.c   ****   post_time = 0;
 1388              		.loc 1 345 0
 1389 05da 1E4B     		ldr	r3, .L133	@ tmp113,
 1390 05dc 0022     		movs	r2, #0	@ tmp114,
 1391 05de 1A60     		str	r2, [r3]	@ tmp114, post_time
 346:code/main.c   ****   wheel = 700;
 1392              		.loc 1 346 0
 1393 05e0 1D4B     		ldr	r3, .L133+4	@ tmp115,
 1394 05e2 AF22     		movs	r2, #175	@ tmp151,
 1395 05e4 9200     		lsls	r2, r2, #2	@ tmp116, tmp151,
 1396 05e6 1A60     		str	r2, [r3]	@ tmp116, wheel
 347:code/main.c   ****   wheel_d = 2136;
 1397              		.loc 1 347 0
 1398 05e8 1C4B     		ldr	r3, .L133+8	@ tmp117,
 1399 05ea 1D4A     		ldr	r2, .L133+12	@ tmp118,
 1400 05ec 1A60     		str	r2, [r3]	@ tmp118, wheel_d
 348:code/main.c   ****   speed_red = false;
 1401              		.loc 1 348 0
 1402 05ee 1D4B     		ldr	r3, .L133+16	@ tmp119,
 1403 05f0 0022     		movs	r2, #0	@ tmp120,
 1404 05f2 1A70     		strb	r2, [r3]	@ tmp121, speed_red
 349:code/main.c   ****   isNight = false;
 1405              		.loc 1 349 0
 1406 05f4 1C4B     		ldr	r3, .L133+20	@ tmp122,
 1407 05f6 0022     		movs	r2, #0	@ tmp123,
 1408 05f8 1A70     		strb	r2, [r3]	@ tmp124, isNight
 350:code/main.c   ****   switchDisplay = false;
 1409              		.loc 1 350 0
ARM GAS  /tmp/ccLwwf6o.s 			page 32


 1410 05fa 1C4B     		ldr	r3, .L133+24	@ tmp125,
 1411 05fc 0022     		movs	r2, #0	@ tmp126,
 1412 05fe 1A70     		strb	r2, [r3]	@ tmp127, switchDisplay
 351:code/main.c   ****   distance = 0;
 1413              		.loc 1 351 0
 1414 0600 1B4B     		ldr	r3, .L133+28	@ tmp128,
 1415 0602 0022     		movs	r2, #0	@ tmp129,
 1416 0604 1A60     		str	r2, [r3]	@ tmp129, distance
 352:code/main.c   ****   speed_f = 0;
 1417              		.loc 1 352 0
 1418 0606 1B4B     		ldr	r3, .L133+32	@ tmp130,
 1419 0608 0022     		movs	r2, #0	@ tmp131,
 1420 060a 1A60     		str	r2, [r3]	@ tmp131, speed_f
 353:code/main.c   ****   speed_b = 0;
 1421              		.loc 1 353 0
 1422 060c 1A4B     		ldr	r3, .L133+36	@ tmp132,
 1423 060e 0022     		movs	r2, #0	@ tmp133,
 1424 0610 1A60     		str	r2, [r3]	@ tmp133, speed_b
 354:code/main.c   ****   max_speed = 0;
 1425              		.loc 1 354 0
 1426 0612 1A4B     		ldr	r3, .L133+40	@ tmp134,
 1427 0614 0022     		movs	r2, #0	@ tmp135,
 1428 0616 1A60     		str	r2, [r3]	@ tmp135, max_speed
 355:code/main.c   ****   total_distance_f = 0;
 1429              		.loc 1 355 0
 1430 0618 194B     		ldr	r3, .L133+44	@ tmp136,
 1431 061a 0022     		movs	r2, #0	@ tmp137,
 1432 061c 1A60     		str	r2, [r3]	@ tmp137, total_distance_f
 356:code/main.c   ****   total_distance_b = 0;
 1433              		.loc 1 356 0
 1434 061e 194B     		ldr	r3, .L133+48	@ tmp138,
 1435 0620 0022     		movs	r2, #0	@ tmp139,
 1436 0622 1A60     		str	r2, [r3]	@ tmp139, total_distance_b
 357:code/main.c   ****   post_distance = 0;
 1437              		.loc 1 357 0
 1438 0624 184B     		ldr	r3, .L133+52	@ tmp140,
 1439 0626 0022     		movs	r2, #0	@ tmp141,
 1440 0628 1A60     		str	r2, [r3]	@ tmp141, post_distance
 358:code/main.c   ****   mode = 0xA;
 1441              		.loc 1 358 0
 1442 062a 184B     		ldr	r3, .L133+56	@ tmp142,
 1443 062c 0A22     		movs	r2, #10	@ tmp143,
 1444 062e 1A60     		str	r2, [r3]	@ tmp143, mode
 359:code/main.c   ****   stop_time_mode = 0;
 1445              		.loc 1 359 0
 1446 0630 174B     		ldr	r3, .L133+60	@ tmp144,
 1447 0632 0022     		movs	r2, #0	@ tmp145,
 1448 0634 1A60     		str	r2, [r3]	@ tmp145, stop_time_mode
 360:code/main.c   ****   post_fork = 0;
 1449              		.loc 1 360 0
 1450 0636 174B     		ldr	r3, .L133+64	@ tmp146,
 1451 0638 0022     		movs	r2, #0	@ tmp147,
 1452 063a 1A60     		str	r2, [r3]	@ tmp147, post_fork
 361:code/main.c   **** 
 362:code/main.c   ****   display_segment(mode, total_distance_f, total_distance_b);
 1453              		.loc 1 362 0
 1454 063c 134B     		ldr	r3, .L133+56	@ tmp148,
ARM GAS  /tmp/ccLwwf6o.s 			page 33


 1455 063e 1868     		ldr	r0, [r3]	@ D.4736, mode
 1456 0640 0F4B     		ldr	r3, .L133+44	@ tmp149,
 1457 0642 1968     		ldr	r1, [r3]	@ D.4736, total_distance_f
 1458 0644 0F4B     		ldr	r3, .L133+48	@ tmp150,
 1459 0646 1B68     		ldr	r3, [r3]	@ D.4736, total_distance_b
 1460 0648 1A00     		movs	r2, r3	@, D.4736
 1461 064a FFF7FEFF 		bl	display_segment	@
 363:code/main.c   ****   //display_oled();
 364:code/main.c   **** 
 365:code/main.c   ****   return;
 1462              		.loc 1 365 0
 1463 064e C046     		nop
 366:code/main.c   ****     
 367:code/main.c   **** }
 1464              		.loc 1 367 0
 1465              		@ sp needed	@
 1466 0650 10BD     		pop	{r4, pc}
 1467              	.L134:
 1468 0652 C046     		.align	2
 1469              	.L133:
 1470 0654 00000000 		.word	post_time
 1471 0658 00000000 		.word	wheel
 1472 065c 00000000 		.word	wheel_d
 1473 0660 58080000 		.word	2136
 1474 0664 00000000 		.word	speed_red
 1475 0668 00000000 		.word	isNight
 1476 066c 00000000 		.word	switchDisplay
 1477 0670 00000000 		.word	distance
 1478 0674 00000000 		.word	speed_f
 1479 0678 00000000 		.word	speed_b
 1480 067c 00000000 		.word	max_speed
 1481 0680 00000000 		.word	total_distance_f
 1482 0684 00000000 		.word	total_distance_b
 1483 0688 00000000 		.word	post_distance
 1484 068c 00000000 		.word	mode
 1485 0690 00000000 		.word	stop_time_mode
 1486 0694 00000000 		.word	post_fork
 1487              		.cfi_endproc
 1488              	.LFE22:
 1489              		.size	initiate, .-initiate
 1490              		.global	__aeabi_fsub
 1491              		.align	2
 1492              		.global	main
 1493              		.code	16
 1494              		.thumb_func
 1495              		.type	main, %function
 1496              	main:
 1497              	.LFB23:
 368:code/main.c   **** 
 369:code/main.c   **** //------------------------------------------------------------------------------
 370:code/main.c   **** // Main Function
 371:code/main.c   **** //------------------------------------------------------------------------------
 372:code/main.c   **** 
 373:code/main.c   **** int main(void) {
 1498              		.loc 1 373 0
 1499              		.cfi_startproc
 1500              		@ args = 0, pretend = 0, frame = 0
ARM GAS  /tmp/ccLwwf6o.s 			page 34


 1501              		@ frame_needed = 0, uses_anonymous_args = 0
 1502 0698 10B5     		push	{r4, lr}	@
 1503              	.LCFI16:
 1504              		.cfi_def_cfa_offset 8
 1505              		.cfi_offset 4, -8
 1506              		.cfi_offset 14, -4
 374:code/main.c   **** 
 375:code/main.c   ****   initiate();
 1507              		.loc 1 375 0
 1508 069a FFF7FEFF 		bl	initiate	@
 1509              	.L146:
 376:code/main.c   **** 
 377:code/main.c   ****   while(1) {
 378:code/main.c   **** 
 379:code/main.c   ****     check_time_stop();
 1510              		.loc 1 379 0
 1511 069e FFF7FEFF 		bl	check_time_stop	@
 380:code/main.c   **** 
 381:code/main.c   ****     if (wait_for_press()) { // 等待三秒或等待按钮按下后
 1512              		.loc 1 381 0
 1513 06a2 FFF7FEFF 		bl	wait_for_press	@
 1514 06a6 031E     		subs	r3, r0, #0	@ tmp192,,
 1515 06a8 00D1     		bne	.LCB1194	@
 1516 06aa 72E0     		b	.L136	@long jump	@
 1517              	.LCB1194:
 382:code/main.c   **** 
 383:code/main.c   ****       // 按钮按下后，处理按钮操作
 384:code/main.c   ****       if (setting()) {
 1518              		.loc 1 384 0
 1519 06ac FFF7FEFF 		bl	setting	@
 1520 06b0 031E     		subs	r3, r0, #0	@ tmp194,,
 1521 06b2 02D0     		beq	.L137	@,
 385:code/main.c   ****         
 386:code/main.c   ****         // 设置操作，更改wheel 
 387:code/main.c   ****         wait_for_setting();
 1522              		.loc 1 387 0
 1523 06b4 FFF7FEFF 		bl	wait_for_setting	@
 1524 06b8 6BE0     		b	.L136	@
 1525              	.L137:
 388:code/main.c   **** 
 389:code/main.c   ****       } else {
 390:code/main.c   **** 
 391:code/main.c   ****         if (press_trip()) {
 1526              		.loc 1 391 0
 1527 06ba FFF7FEFF 		bl	press_trip	@
 1528 06be 031E     		subs	r3, r0, #0	@ tmp196,,
 1529 06c0 11D0     		beq	.L138	@,
 392:code/main.c   **** 
 393:code/main.c   ****           total_distance = 0;
 1530              		.loc 1 393 0
 1531 06c2 AA4B     		ldr	r3, .L147	@ tmp198,
 1532 06c4 0022     		movs	r2, #0	@ tmp199,
 1533 06c6 1A60     		str	r2, [r3]	@ tmp199, total_distance
 394:code/main.c   ****           clear_fork();
 1534              		.loc 1 394 0
 1535 06c8 FFF7FEFF 		bl	clear_fork	@
 395:code/main.c   ****           post_time = 0;
ARM GAS  /tmp/ccLwwf6o.s 			page 35


 1536              		.loc 1 395 0
 1537 06cc A84B     		ldr	r3, .L147+4	@ tmp200,
 1538 06ce 0022     		movs	r2, #0	@ tmp201,
 1539 06d0 1A60     		str	r2, [r3]	@ tmp201, post_time
 396:code/main.c   ****           clear_timer_long();
 1540              		.loc 1 396 0
 1541 06d2 FFF7FEFF 		bl	clear_timer_long	@
 397:code/main.c   ****           display_segment(mode, 0, 0);
 1542              		.loc 1 397 0
 1543 06d6 A74B     		ldr	r3, .L147+8	@ tmp202,
 1544 06d8 1B68     		ldr	r3, [r3]	@ D.4738, mode
 1545 06da 0022     		movs	r2, #0	@,
 1546 06dc 0021     		movs	r1, #0	@,
 1547 06de 1800     		movs	r0, r3	@, D.4738
 1548 06e0 FFF7FEFF 		bl	display_segment	@
 1549 06e4 55E0     		b	.L136	@
 1550              	.L138:
 398:code/main.c   ****                
 399:code/main.c   ****         } else if (press_mode()) {     // A里程  B时间  C速度  D踏频  E设置
 1551              		.loc 1 399 0
 1552 06e6 FFF7FEFF 		bl	press_mode	@
 1553 06ea 031E     		subs	r3, r0, #0	@ tmp203,,
 1554 06ec 45D0     		beq	.L139	@,
 400:code/main.c   **** 
 401:code/main.c   ****           if (mode == 0xA){
 1555              		.loc 1 401 0
 1556 06ee A14B     		ldr	r3, .L147+8	@ tmp205,
 1557 06f0 1B68     		ldr	r3, [r3]	@ D.4738, mode
 1558 06f2 0A2B     		cmp	r3, #10	@ D.4738,
 1559 06f4 0CD1     		bne	.L140	@,
 402:code/main.c   **** 
 403:code/main.c   ****             mode = 0xB;
 1560              		.loc 1 403 0
 1561 06f6 9F4B     		ldr	r3, .L147+8	@ tmp206,
 1562 06f8 0B22     		movs	r2, #11	@ tmp207,
 1563 06fa 1A60     		str	r2, [r3]	@ tmp207, mode
 404:code/main.c   ****             display_segment(mode, time_h_bcd, time_m_bcd);
 1564              		.loc 1 404 0
 1565 06fc 9D4B     		ldr	r3, .L147+8	@ tmp208,
 1566 06fe 1868     		ldr	r0, [r3]	@ D.4738, mode
 1567 0700 9D4B     		ldr	r3, .L147+12	@ tmp209,
 1568 0702 1968     		ldr	r1, [r3]	@ D.4738, time_h_bcd
 1569 0704 9D4B     		ldr	r3, .L147+16	@ tmp210,
 1570 0706 1B68     		ldr	r3, [r3]	@ D.4738, time_m_bcd
 1571 0708 1A00     		movs	r2, r3	@, D.4738
 1572 070a FFF7FEFF 		bl	display_segment	@
 1573 070e 30E0     		b	.L141	@
 1574              	.L140:
 405:code/main.c   **** 
 406:code/main.c   ****           } else if (mode == 0xB) {
 1575              		.loc 1 406 0
 1576 0710 984B     		ldr	r3, .L147+8	@ tmp211,
 1577 0712 1B68     		ldr	r3, [r3]	@ D.4738, mode
 1578 0714 0B2B     		cmp	r3, #11	@ D.4738,
 1579 0716 0CD1     		bne	.L142	@,
 407:code/main.c   **** 
 408:code/main.c   ****             mode = 0xC;
ARM GAS  /tmp/ccLwwf6o.s 			page 36


 1580              		.loc 1 408 0
 1581 0718 964B     		ldr	r3, .L147+8	@ tmp212,
 1582 071a 0C22     		movs	r2, #12	@ tmp213,
 1583 071c 1A60     		str	r2, [r3]	@ tmp213, mode
 409:code/main.c   ****             display_segment(mode, speed_f_bcd, speed_b_bcd);
 1584              		.loc 1 409 0
 1585 071e 954B     		ldr	r3, .L147+8	@ tmp214,
 1586 0720 1868     		ldr	r0, [r3]	@ D.4738, mode
 1587 0722 974B     		ldr	r3, .L147+20	@ tmp215,
 1588 0724 1968     		ldr	r1, [r3]	@ D.4738, speed_f_bcd
 1589 0726 974B     		ldr	r3, .L147+24	@ tmp216,
 1590 0728 1B68     		ldr	r3, [r3]	@ D.4738, speed_b_bcd
 1591 072a 1A00     		movs	r2, r3	@, D.4738
 1592 072c FFF7FEFF 		bl	display_segment	@
 1593 0730 1FE0     		b	.L141	@
 1594              	.L142:
 410:code/main.c   **** 
 411:code/main.c   ****           } else if (mode == 0xC) {
 1595              		.loc 1 411 0
 1596 0732 904B     		ldr	r3, .L147+8	@ tmp217,
 1597 0734 1B68     		ldr	r3, [r3]	@ D.4738, mode
 1598 0736 0C2B     		cmp	r3, #12	@ D.4738,
 1599 0738 0BD1     		bne	.L143	@,
 412:code/main.c   **** 
 413:code/main.c   ****             mode = 0xD;
 1600              		.loc 1 413 0
 1601 073a 8E4B     		ldr	r3, .L147+8	@ tmp218,
 1602 073c 0D22     		movs	r2, #13	@ tmp219,
 1603 073e 1A60     		str	r2, [r3]	@ tmp219, mode
 414:code/main.c   ****             display_segment(mode, cadence_bcd, 0);
 1604              		.loc 1 414 0
 1605 0740 8C4B     		ldr	r3, .L147+8	@ tmp220,
 1606 0742 1868     		ldr	r0, [r3]	@ D.4738, mode
 1607 0744 904B     		ldr	r3, .L147+28	@ tmp221,
 1608 0746 1B68     		ldr	r3, [r3]	@ D.4738, cadence_bcd
 1609 0748 0022     		movs	r2, #0	@,
 1610 074a 1900     		movs	r1, r3	@, D.4738
 1611 074c FFF7FEFF 		bl	display_segment	@
 1612 0750 0FE0     		b	.L141	@
 1613              	.L143:
 415:code/main.c   **** 
 416:code/main.c   ****           } else if (mode == 0xD){
 1614              		.loc 1 416 0
 1615 0752 884B     		ldr	r3, .L147+8	@ tmp222,
 1616 0754 1B68     		ldr	r3, [r3]	@ D.4738, mode
 1617 0756 0D2B     		cmp	r3, #13	@ D.4738,
 1618 0758 0BD1     		bne	.L141	@,
 417:code/main.c   **** 
 418:code/main.c   ****             mode = 0xA;
 1619              		.loc 1 418 0
 1620 075a 864B     		ldr	r3, .L147+8	@ tmp223,
 1621 075c 0A22     		movs	r2, #10	@ tmp224,
 1622 075e 1A60     		str	r2, [r3]	@ tmp224, mode
 419:code/main.c   ****             display_segment(mode, total_distance_f_bcd, total_distance_b_bcd);
 1623              		.loc 1 419 0
 1624 0760 844B     		ldr	r3, .L147+8	@ tmp225,
 1625 0762 1868     		ldr	r0, [r3]	@ D.4738, mode
ARM GAS  /tmp/ccLwwf6o.s 			page 37


 1626 0764 894B     		ldr	r3, .L147+32	@ tmp226,
 1627 0766 1968     		ldr	r1, [r3]	@ D.4738, total_distance_f_bcd
 1628 0768 894B     		ldr	r3, .L147+36	@ tmp227,
 1629 076a 1B68     		ldr	r3, [r3]	@ D.4738, total_distance_b_bcd
 1630 076c 1A00     		movs	r2, r3	@, D.4738
 1631 076e FFF7FEFF 		bl	display_segment	@
 1632              	.L141:
 420:code/main.c   **** 
 421:code/main.c   ****           }
 422:code/main.c   ****             switchDisplay = true;
 1633              		.loc 1 422 0
 1634 0772 884B     		ldr	r3, .L147+40	@ tmp228,
 1635 0774 0122     		movs	r2, #1	@ tmp229,
 1636 0776 1A70     		strb	r2, [r3]	@ tmp230, switchDisplay
 1637 0778 0BE0     		b	.L136	@
 1638              	.L139:
 423:code/main.c   **** 
 424:code/main.c   ****         } else if (press_d_mode()) {
 1639              		.loc 1 424 0
 1640 077a FFF7FEFF 		bl	press_d_mode	@
 1641 077e 031E     		subs	r3, r0, #0	@ tmp231,,
 1642 0780 07D0     		beq	.L136	@,
 425:code/main.c   **** 
 426:code/main.c   ****           isNight = ~ isNight;
 1643              		.loc 1 426 0
 1644 0782 854B     		ldr	r3, .L147+44	@ tmp233,
 1645 0784 1B78     		ldrb	r3, [r3]	@ D.4737, isNight
 1646 0786 DB43     		mvns	r3, r3	@ D.4739, D.4739
 1647 0788 5A1E     		subs	r2, r3, #1	@ tmp236, D.4739
 1648 078a 9341     		sbcs	r3, r3, r2	@ tmp235, D.4739, tmp236
 1649 078c DAB2     		uxtb	r2, r3	@ D.4737, tmp234
 1650 078e 824B     		ldr	r3, .L147+44	@ tmp237,
 1651 0790 1A70     		strb	r2, [r3]	@ tmp238, isNight
 1652              	.L136:
 427:code/main.c   **** 
 428:code/main.c   ****         }
 429:code/main.c   **** 
 430:code/main.c   ****       }
 431:code/main.c   **** 
 432:code/main.c   ****     }
 433:code/main.c   ****     // 按钮按下则在处理完按钮操作后立即刷新，没有按下则三秒刷新一次
 434:code/main.c   ****     
 435:code/main.c   ****     crank = read_crank();
 1653              		.loc 1 435 0
 1654 0792 FFF7FEFF 		bl	read_crank	@
 1655 0796 0200     		movs	r2, r0	@ D.4738,
 1656 0798 804B     		ldr	r3, .L147+48	@ tmp239,
 1657 079a 1A60     		str	r2, [r3]	@ D.4738, crank
 436:code/main.c   **** 
 437:code/main.c   ****     check_time_stop();
 1658              		.loc 1 437 0
 1659 079c FFF7FEFF 		bl	check_time_stop	@
 438:code/main.c   ****     
 439:code/main.c   ****     total_distance = get_distance(bike_fork, wheel_d);
 1660              		.loc 1 439 0
 1661 07a0 7F4B     		ldr	r3, .L147+52	@ tmp240,
 1662 07a2 1A68     		ldr	r2, [r3]	@ D.4738, bike_fork
ARM GAS  /tmp/ccLwwf6o.s 			page 38


 1663 07a4 7F4B     		ldr	r3, .L147+56	@ tmp241,
 1664 07a6 1B68     		ldr	r3, [r3]	@ D.4738, wheel_d
 1665 07a8 1900     		movs	r1, r3	@, D.4738
 1666 07aa 1000     		movs	r0, r2	@, D.4738
 1667 07ac FFF7FEFF 		bl	get_distance	@
 1668 07b0 021C     		adds	r2, r0, #0	@ D.4740,
 1669 07b2 6E4B     		ldr	r3, .L147	@ tmp242,
 1670 07b4 1A60     		str	r2, [r3]	@ D.4740, total_distance
 440:code/main.c   ****     distance = total_distance - post_distance;
 1671              		.loc 1 440 0
 1672 07b6 6D4B     		ldr	r3, .L147	@ tmp243,
 1673 07b8 1A68     		ldr	r2, [r3]	@ D.4740, total_distance
 1674 07ba 7B4B     		ldr	r3, .L147+60	@ tmp244,
 1675 07bc 1B68     		ldr	r3, [r3]	@ D.4740, post_distance
 1676 07be 191C     		adds	r1, r3, #0	@, D.4740
 1677 07c0 101C     		adds	r0, r2, #0	@, D.4740
 1678 07c2 FFF7FEFF 		bl	__aeabi_fsub	@
 1679 07c6 031C     		adds	r3, r0, #0	@ tmp245,
 1680 07c8 1A1C     		adds	r2, r3, #0	@ D.4740, tmp245
 1681 07ca 784B     		ldr	r3, .L147+64	@ tmp246,
 1682 07cc 1A60     		str	r2, [r3]	@ D.4740, distance
 441:code/main.c   ****     post_distance = total_distance;
 1683              		.loc 1 441 0
 1684 07ce 674B     		ldr	r3, .L147	@ tmp247,
 1685 07d0 1A68     		ldr	r2, [r3]	@ D.4740, total_distance
 1686 07d2 754B     		ldr	r3, .L147+60	@ tmp248,
 1687 07d4 1A60     		str	r2, [r3]	@ D.4740, post_distance
 442:code/main.c   ****     total_distance_f = (uint32_t) total_distance;
 1688              		.loc 1 442 0
 1689 07d6 654B     		ldr	r3, .L147	@ tmp249,
 1690 07d8 1B68     		ldr	r3, [r3]	@ D.4740, total_distance
 1691 07da 181C     		adds	r0, r3, #0	@, D.4740
 1692 07dc FFF7FEFF 		bl	__aeabi_f2uiz	@
 1693 07e0 0200     		movs	r2, r0	@ D.4738,
 1694 07e2 734B     		ldr	r3, .L147+68	@ tmp250,
 1695 07e4 1A60     		str	r2, [r3]	@ D.4738, total_distance_f
 443:code/main.c   ****     total_distance_b = (uint32_t) ((total_distance - total_distance_f) * 100);
 1696              		.loc 1 443 0
 1697 07e6 614B     		ldr	r3, .L147	@ tmp251,
 1698 07e8 1C68     		ldr	r4, [r3]	@ D.4740, total_distance
 1699 07ea 714B     		ldr	r3, .L147+68	@ tmp252,
 1700 07ec 1B68     		ldr	r3, [r3]	@ D.4738, total_distance_f
 1701 07ee 1800     		movs	r0, r3	@, D.4738
 1702 07f0 FFF7FEFF 		bl	__aeabi_ui2f	@
 1703 07f4 031C     		adds	r3, r0, #0	@ D.4740,
 1704 07f6 191C     		adds	r1, r3, #0	@, D.4740
 1705 07f8 201C     		adds	r0, r4, #0	@, D.4740
 1706 07fa FFF7FEFF 		bl	__aeabi_fsub	@
 1707 07fe 031C     		adds	r3, r0, #0	@ tmp253,
 1708 0800 6C49     		ldr	r1, .L147+72	@,
 1709 0802 181C     		adds	r0, r3, #0	@, D.4740
 1710 0804 FFF7FEFF 		bl	__aeabi_fmul	@
 1711 0808 031C     		adds	r3, r0, #0	@ tmp254,
 1712 080a 181C     		adds	r0, r3, #0	@, D.4740
 1713 080c FFF7FEFF 		bl	__aeabi_f2uiz	@
 1714 0810 0200     		movs	r2, r0	@ D.4738,
 1715 0812 694B     		ldr	r3, .L147+76	@ tmp255,
ARM GAS  /tmp/ccLwwf6o.s 			page 39


 1716 0814 1A60     		str	r2, [r3]	@ D.4738, total_distance_b
 444:code/main.c   ****     total_distance_f_bcd = int2bcd(total_distance_f);
 1717              		.loc 1 444 0
 1718 0816 664B     		ldr	r3, .L147+68	@ tmp256,
 1719 0818 1B68     		ldr	r3, [r3]	@ D.4738, total_distance_f
 1720 081a 1800     		movs	r0, r3	@, D.4738
 1721 081c FFF7FEFF 		bl	int2bcd	@
 1722 0820 0200     		movs	r2, r0	@ D.4738,
 1723 0822 5A4B     		ldr	r3, .L147+32	@ tmp257,
 1724 0824 1A60     		str	r2, [r3]	@ D.4738, total_distance_f_bcd
 445:code/main.c   ****     total_distance_b_bcd = int2bcd(total_distance_b);
 1725              		.loc 1 445 0
 1726 0826 644B     		ldr	r3, .L147+76	@ tmp258,
 1727 0828 1B68     		ldr	r3, [r3]	@ D.4738, total_distance_b
 1728 082a 1800     		movs	r0, r3	@, D.4738
 1729 082c FFF7FEFF 		bl	int2bcd	@
 1730 0830 0200     		movs	r2, r0	@ D.4738,
 1731 0832 574B     		ldr	r3, .L147+36	@ tmp259,
 1732 0834 1A60     		str	r2, [r3]	@ D.4738, total_distance_b_bcd
 446:code/main.c   **** 
 447:code/main.c   ****     if (stop_time_mode == 1) {
 1733              		.loc 1 447 0
 1734 0836 614B     		ldr	r3, .L147+80	@ tmp260,
 1735 0838 1B68     		ldr	r3, [r3]	@ D.4738, stop_time_mode
 1736 083a 012B     		cmp	r3, #1	@ D.4738,
 1737 083c 04D1     		bne	.L144	@,
 448:code/main.c   **** 
 449:code/main.c   ****       now_time = store_stop_time;
 1738              		.loc 1 449 0
 1739 083e 604B     		ldr	r3, .L147+84	@ tmp261,
 1740 0840 1A68     		ldr	r2, [r3]	@ D.4738, store_stop_time
 1741 0842 604B     		ldr	r3, .L147+88	@ tmp262,
 1742 0844 1A60     		str	r2, [r3]	@ D.4738, now_time
 1743 0846 04E0     		b	.L145	@
 1744              	.L144:
 450:code/main.c   **** 
 451:code/main.c   ****     } else {
 452:code/main.c   **** 
 453:code/main.c   ****       now_time = read_time_long();
 1745              		.loc 1 453 0
 1746 0848 FFF7FEFF 		bl	read_time_long	@
 1747 084c 0200     		movs	r2, r0	@ D.4738,
 1748 084e 5D4B     		ldr	r3, .L147+88	@ tmp263,
 1749 0850 1A60     		str	r2, [r3]	@ D.4738, now_time
 1750              	.L145:
 454:code/main.c   **** 
 455:code/main.c   ****     }
 456:code/main.c   ****     
 457:code/main.c   ****     time = now_time - post_time;
 1751              		.loc 1 457 0
 1752 0852 5C4B     		ldr	r3, .L147+88	@ tmp264,
 1753 0854 1A68     		ldr	r2, [r3]	@ D.4738, now_time
 1754 0856 464B     		ldr	r3, .L147+4	@ tmp265,
 1755 0858 1B68     		ldr	r3, [r3]	@ D.4738, post_time
 1756 085a D21A     		subs	r2, r2, r3	@ D.4738, D.4738, D.4738
 1757 085c 5A4B     		ldr	r3, .L147+92	@ tmp266,
 1758 085e 1A60     		str	r2, [r3]	@ D.4738, time
ARM GAS  /tmp/ccLwwf6o.s 			page 40


 458:code/main.c   ****     speed = get_speed(distance, time);
 1759              		.loc 1 458 0
 1760 0860 524B     		ldr	r3, .L147+64	@ tmp267,
 1761 0862 1A68     		ldr	r2, [r3]	@ D.4740, distance
 1762 0864 584B     		ldr	r3, .L147+92	@ tmp268,
 1763 0866 1B68     		ldr	r3, [r3]	@ D.4738, time
 1764 0868 1900     		movs	r1, r3	@, D.4738
 1765 086a 101C     		adds	r0, r2, #0	@, D.4740
 1766 086c FFF7FEFF 		bl	get_speed	@
 1767 0870 021C     		adds	r2, r0, #0	@ D.4740,
 1768 0872 564B     		ldr	r3, .L147+96	@ tmp269,
 1769 0874 1A60     		str	r2, [r3]	@ D.4740, speed
 459:code/main.c   ****     post_time = now_time;
 1770              		.loc 1 459 0
 1771 0876 534B     		ldr	r3, .L147+88	@ tmp270,
 1772 0878 1A68     		ldr	r2, [r3]	@ D.4738, now_time
 1773 087a 3D4B     		ldr	r3, .L147+4	@ tmp271,
 1774 087c 1A60     		str	r2, [r3]	@ D.4738, post_time
 460:code/main.c   **** 
 461:code/main.c   ****     time_h = now_time / 3600;
 1775              		.loc 1 461 0
 1776 087e 514B     		ldr	r3, .L147+88	@ tmp272,
 1777 0880 1A68     		ldr	r2, [r3]	@ D.4738, now_time
 1778 0882 E123     		movs	r3, #225	@ tmp310,
 1779 0884 1901     		lsls	r1, r3, #4	@, tmp310,
 1780 0886 1000     		movs	r0, r2	@, D.4738
 1781 0888 FFF7FEFF 		bl	__aeabi_uidiv	@
 1782 088c 0300     		movs	r3, r0	@ tmp275,
 1783 088e 1A00     		movs	r2, r3	@ D.4738, tmp275
 1784 0890 4F4B     		ldr	r3, .L147+100	@ tmp276,
 1785 0892 1A60     		str	r2, [r3]	@ D.4738, time_h
 462:code/main.c   ****     time_m = (now_time % 3600) / 60;
 1786              		.loc 1 462 0
 1787 0894 4B4B     		ldr	r3, .L147+88	@ tmp277,
 1788 0896 1A68     		ldr	r2, [r3]	@ D.4738, now_time
 1789 0898 E123     		movs	r3, #225	@ tmp311,
 1790 089a 1901     		lsls	r1, r3, #4	@, tmp311,
 1791 089c 1000     		movs	r0, r2	@, D.4738
 1792 089e FFF7FEFF 		bl	__aeabi_uidivmod	@
 1793 08a2 0B00     		movs	r3, r1	@ tmp282,
 1794 08a4 3C21     		movs	r1, #60	@,
 1795 08a6 1800     		movs	r0, r3	@, D.4738
 1796 08a8 FFF7FEFF 		bl	__aeabi_uidiv	@
 1797 08ac 0300     		movs	r3, r0	@ tmp285,
 1798 08ae 1A00     		movs	r2, r3	@ D.4738, tmp285
 1799 08b0 484B     		ldr	r3, .L147+104	@ tmp286,
 1800 08b2 1A60     		str	r2, [r3]	@ D.4738, time_m
 463:code/main.c   ****     time_h_bcd = int2bcd(time_h);
 1801              		.loc 1 463 0
 1802 08b4 464B     		ldr	r3, .L147+100	@ tmp287,
 1803 08b6 1B68     		ldr	r3, [r3]	@ D.4738, time_h
 1804 08b8 1800     		movs	r0, r3	@, D.4738
 1805 08ba FFF7FEFF 		bl	int2bcd	@
 1806 08be 0200     		movs	r2, r0	@ D.4738,
 1807 08c0 2D4B     		ldr	r3, .L147+12	@ tmp288,
 1808 08c2 1A60     		str	r2, [r3]	@ D.4738, time_h_bcd
 464:code/main.c   ****     time_m_bcd = int2bcd(time_m);
ARM GAS  /tmp/ccLwwf6o.s 			page 41


 1809              		.loc 1 464 0
 1810 08c4 434B     		ldr	r3, .L147+104	@ tmp289,
 1811 08c6 1B68     		ldr	r3, [r3]	@ D.4738, time_m
 1812 08c8 1800     		movs	r0, r3	@, D.4738
 1813 08ca FFF7FEFF 		bl	int2bcd	@
 1814 08ce 0200     		movs	r2, r0	@ D.4738,
 1815 08d0 2A4B     		ldr	r3, .L147+16	@ tmp290,
 1816 08d2 1A60     		str	r2, [r3]	@ D.4738, time_m_bcd
 465:code/main.c   ****     
 466:code/main.c   ****     speed_f = (uint32_t) speed;
 1817              		.loc 1 466 0
 1818 08d4 3D4B     		ldr	r3, .L147+96	@ tmp291,
 1819 08d6 1B68     		ldr	r3, [r3]	@ D.4740, speed
 1820 08d8 181C     		adds	r0, r3, #0	@, D.4740
 1821 08da FFF7FEFF 		bl	__aeabi_f2uiz	@
 1822 08de 0200     		movs	r2, r0	@ D.4738,
 1823 08e0 3D4B     		ldr	r3, .L147+108	@ tmp292,
 1824 08e2 1A60     		str	r2, [r3]	@ D.4738, speed_f
 467:code/main.c   ****     speed_b = (uint32_t) ((speed - speed_f) * 100);
 1825              		.loc 1 467 0
 1826 08e4 394B     		ldr	r3, .L147+96	@ tmp293,
 1827 08e6 1C68     		ldr	r4, [r3]	@ D.4740, speed
 1828 08e8 3B4B     		ldr	r3, .L147+108	@ tmp294,
 1829 08ea 1B68     		ldr	r3, [r3]	@ D.4738, speed_f
 1830 08ec 1800     		movs	r0, r3	@, D.4738
 1831 08ee FFF7FEFF 		bl	__aeabi_ui2f	@
 1832 08f2 031C     		adds	r3, r0, #0	@ D.4740,
 1833 08f4 191C     		adds	r1, r3, #0	@, D.4740
 1834 08f6 201C     		adds	r0, r4, #0	@, D.4740
 1835 08f8 FFF7FEFF 		bl	__aeabi_fsub	@
 1836 08fc 031C     		adds	r3, r0, #0	@ tmp295,
 1837 08fe 2D49     		ldr	r1, .L147+72	@,
 1838 0900 181C     		adds	r0, r3, #0	@, D.4740
 1839 0902 FFF7FEFF 		bl	__aeabi_fmul	@
 1840 0906 031C     		adds	r3, r0, #0	@ tmp296,
 1841 0908 181C     		adds	r0, r3, #0	@, D.4740
 1842 090a FFF7FEFF 		bl	__aeabi_f2uiz	@
 1843 090e 0200     		movs	r2, r0	@ D.4738,
 1844 0910 324B     		ldr	r3, .L147+112	@ tmp297,
 1845 0912 1A60     		str	r2, [r3]	@ D.4738, speed_b
 468:code/main.c   ****     speed_f_bcd = int2bcd(speed_f);
 1846              		.loc 1 468 0
 1847 0914 304B     		ldr	r3, .L147+108	@ tmp298,
 1848 0916 1B68     		ldr	r3, [r3]	@ D.4738, speed_f
 1849 0918 1800     		movs	r0, r3	@, D.4738
 1850 091a FFF7FEFF 		bl	int2bcd	@
 1851 091e 0200     		movs	r2, r0	@ D.4738,
 1852 0920 174B     		ldr	r3, .L147+20	@ tmp299,
 1853 0922 1A60     		str	r2, [r3]	@ D.4738, speed_f_bcd
 469:code/main.c   ****     speed_b_bcd = int2bcd(speed_b);
 1854              		.loc 1 469 0
 1855 0924 2D4B     		ldr	r3, .L147+112	@ tmp300,
 1856 0926 1B68     		ldr	r3, [r3]	@ D.4738, speed_b
 1857 0928 1800     		movs	r0, r3	@, D.4738
 1858 092a FFF7FEFF 		bl	int2bcd	@
 1859 092e 0200     		movs	r2, r0	@ D.4738,
 1860 0930 144B     		ldr	r3, .L147+24	@ tmp301,
ARM GAS  /tmp/ccLwwf6o.s 			page 42


 1861 0932 1A60     		str	r2, [r3]	@ D.4738, speed_b_bcd
 470:code/main.c   **** 
 471:code/main.c   ****     cadence = get_cadence(crank, time);
 1862              		.loc 1 471 0
 1863 0934 194B     		ldr	r3, .L147+48	@ tmp302,
 1864 0936 1A68     		ldr	r2, [r3]	@ D.4738, crank
 1865 0938 234B     		ldr	r3, .L147+92	@ tmp303,
 1866 093a 1B68     		ldr	r3, [r3]	@ D.4738, time
 1867 093c 1900     		movs	r1, r3	@, D.4738
 1868 093e 1000     		movs	r0, r2	@, D.4738
 1869 0940 FFF7FEFF 		bl	get_cadence	@
 1870 0944 0200     		movs	r2, r0	@ D.4738,
 1871 0946 264B     		ldr	r3, .L147+116	@ tmp304,
 1872 0948 1A60     		str	r2, [r3]	@ D.4738, cadence
 472:code/main.c   ****     cadence_bcd = int2bcd(cadence);
 1873              		.loc 1 472 0
 1874 094a 254B     		ldr	r3, .L147+116	@ tmp305,
 1875 094c 1B68     		ldr	r3, [r3]	@ D.4738, cadence
 1876 094e 1800     		movs	r0, r3	@, D.4738
 1877 0950 FFF7FEFF 		bl	int2bcd	@
 1878 0954 0200     		movs	r2, r0	@ D.4738,
 1879 0956 0C4B     		ldr	r3, .L147+28	@ tmp306,
 1880 0958 1A60     		str	r2, [r3]	@ D.4738, cadence_bcd
 473:code/main.c   **** 
 474:code/main.c   ****     check_speed();
 1881              		.loc 1 474 0
 1882 095a FFF7FEFF 		bl	check_speed	@
 475:code/main.c   **** 
 476:code/main.c   ****     refresh_segment();
 1883              		.loc 1 476 0
 1884 095e FFF7FEFF 		bl	refresh_segment	@
 477:code/main.c   **** 
 478:code/main.c   ****     //display_segment(total_distance_f, total_distance_b);
 479:code/main.c   **** 
 480:code/main.c   ****     //get_oled_image(distance, speed, ave_speed, energe, max_speed, time, crank, switchDisplay, isN
 481:code/main.c   ****     //display_oled();
 482:code/main.c   **** 
 483:code/main.c   ****     switchDisplay = false;
 1885              		.loc 1 483 0
 1886 0962 0C4B     		ldr	r3, .L147+40	@ tmp307,
 1887 0964 0022     		movs	r2, #0	@ tmp308,
 1888 0966 1A70     		strb	r2, [r3]	@ tmp309, switchDisplay
 484:code/main.c   ****   }
 1889              		.loc 1 484 0
 1890 0968 99E6     		b	.L146	@
 1891              	.L148:
 1892 096a C046     		.align	2
 1893              	.L147:
 1894 096c 00000000 		.word	total_distance
 1895 0970 00000000 		.word	post_time
 1896 0974 00000000 		.word	mode
 1897 0978 00000000 		.word	time_h_bcd
 1898 097c 00000000 		.word	time_m_bcd
 1899 0980 00000000 		.word	speed_f_bcd
 1900 0984 00000000 		.word	speed_b_bcd
 1901 0988 00000000 		.word	cadence_bcd
 1902 098c 00000000 		.word	total_distance_f_bcd
ARM GAS  /tmp/ccLwwf6o.s 			page 43


 1903 0990 00000000 		.word	total_distance_b_bcd
 1904 0994 00000000 		.word	switchDisplay
 1905 0998 00000000 		.word	isNight
 1906 099c 00000000 		.word	crank
 1907 09a0 00000000 		.word	bike_fork
 1908 09a4 00000000 		.word	wheel_d
 1909 09a8 00000000 		.word	post_distance
 1910 09ac 00000000 		.word	distance
 1911 09b0 00000000 		.word	total_distance_f
 1912 09b4 0000C842 		.word	1120403456
 1913 09b8 00000000 		.word	total_distance_b
 1914 09bc 00000000 		.word	stop_time_mode
 1915 09c0 00000000 		.word	store_stop_time
 1916 09c4 00000000 		.word	now_time
 1917 09c8 00000000 		.word	time
 1918 09cc 00000000 		.word	speed
 1919 09d0 00000000 		.word	time_h
 1920 09d4 00000000 		.word	time_m
 1921 09d8 00000000 		.word	speed_f
 1922 09dc 00000000 		.word	speed_b
 1923 09e0 00000000 		.word	cadence
 1924              		.cfi_endproc
 1925              	.LFE23:
 1926              		.size	main, .-main
 1927              	.Letext0:
 1928              		.file 2 "/srv/gcc-arm-none-eabi-5_4-2016q3/arm-none-eabi/include/machine/_default_types.h"
 1929              		.file 3 "/srv/gcc-arm-none-eabi-5_4-2016q3/arm-none-eabi/include/sys/_stdint.h"