ARM GAS  /tmp/ccRwBG1I.s 			page 1


   1              		.syntax unified
   2              		.cpu cortex-m0
   3              		.fpu softvfp
   4              		.eabi_attribute 20, 1	@ Tag_ABI_FP_denormal
   5              		.eabi_attribute 21, 1	@ Tag_ABI_FP_exceptions
   6              		.eabi_attribute 23, 3	@ Tag_ABI_FP_number_model
   7              		.eabi_attribute 24, 1	@ Tag_ABI_align8_needed
   8              		.eabi_attribute 25, 1	@ Tag_ABI_align8_preserved
   9              		.eabi_attribute 26, 1	@ Tag_ABI_enum_size
  10              		.eabi_attribute 30, 6	@ Tag_ABI_optimization_goals
  11              		.eabi_attribute 34, 0	@ Tag_CPU_unaligned_access
  12              		.eabi_attribute 18, 4	@ Tag_ABI_PCS_wchar_t
  13              		.file	"vectors_designstart.c"
  14              	@ GNU C11 (GNU Tools for ARM Embedded Processors) version 5.4.1 20160919 (release) [ARM/embedded-5-
  15              	@	compiled by GNU C version 4.7.4, GMP version 4.3.2, MPFR version 2.4.2, MPC version 0.8.1
  16              	@ GGC heuristics: --param ggc-min-expand=100 --param ggc-min-heapsize=131072
  17              	@ options passed:  -I . -I ./inc -imultilib armv6-m
  18              	@ -iprefix /srv/gcc-arm-none-eabi-5_4-2016q3/bin/../lib/gcc/arm-none-eabi/5.4.1/
  19              	@ -isysroot /srv/gcc-arm-none-eabi-5_4-2016q3/bin/../arm-none-eabi
  20              	@ -MD code/vectors_designstart.d -MF .dep/vectors_designstart.o.d -MP
  21              	@ -MQ code/vectors_designstart.o -D__USES_INITFINI__ -D RUN_FROM_FLASH=1
  22              	@ code/vectors_designstart.c -mcpu=cortex-m0 -mthumb
  23              	@ -auxbase-strip code/vectors_designstart.o -gdwarf-2 -O0 -Wall
  24              	@ -Wstrict-prototypes -fomit-frame-pointer -fverbose-asm
  25              	@ options enabled:  -faggressive-loop-optimizations -fauto-inc-dec
  26              	@ -fchkp-check-incomplete-type -fchkp-check-read -fchkp-check-write
  27              	@ -fchkp-instrument-calls -fchkp-narrow-bounds -fchkp-optimize
  28              	@ -fchkp-store-bounds -fchkp-use-static-bounds
  29              	@ -fchkp-use-static-const-bounds -fchkp-use-wrappers -fcommon
  30              	@ -fdelete-null-pointer-checks -fdwarf2-cfi-asm -fearly-inlining
  31              	@ -feliminate-unused-debug-types -ffunction-cse -fgcse-lm -fgnu-runtime
  32              	@ -fgnu-unique -fident -finline-atomics -fira-hoist-pressure
  33              	@ -fira-share-save-slots -fira-share-spill-slots -fivopts
  34              	@ -fkeep-static-consts -fleading-underscore -flifetime-dse
  35              	@ -flto-odr-type-merging -fmath-errno -fmerge-debug-strings
  36              	@ -fomit-frame-pointer -fpeephole -fprefetch-loop-arrays
  37              	@ -freg-struct-return -fsched-critical-path-heuristic
  38              	@ -fsched-dep-count-heuristic -fsched-group-heuristic -fsched-interblock
  39              	@ -fsched-last-insn-heuristic -fsched-rank-heuristic -fsched-spec
  40              	@ -fsched-spec-insn-heuristic -fsched-stalled-insns-dep
  41              	@ -fsemantic-interposition -fshow-column -fsigned-zeros
  42              	@ -fsplit-ivs-in-unroller -fstdarg-opt -fstrict-volatile-bitfields
  43              	@ -fsync-libcalls -ftrapping-math -ftree-coalesce-vars -ftree-cselim
  44              	@ -ftree-forwprop -ftree-loop-if-convert -ftree-loop-im -ftree-loop-ivcanon
  45              	@ -ftree-loop-optimize -ftree-parallelize-loops= -ftree-phiprop
  46              	@ -ftree-reassoc -ftree-scev-cprop -funit-at-a-time -fverbose-asm
  47              	@ -fzero-initialized-in-bss -mlittle-endian -mpic-data-is-text-relative
  48              	@ -msched-prolog -mthumb -mvectorize-with-neon-quad
  49              	
  50              		.text
  51              	.Ltext0:
  52              		.cfi_sections	.debug_frame
  53              		.global	gVectors
  54              		.section	.vectors,"a",%progbits
  55              		.align	2
  56              		.type	gVectors, %object
  57              		.size	gVectors, 192
ARM GAS  /tmp/ccRwBG1I.s 			page 2


  58              	gVectors:
  59 0000 00000000 		.word	_estack
  60 0004 00000000 		.word	ResetHandler
  61 0008 00000000 		.word	NMI_Handler
  62 000c 00000000 		.word	HardFault_Handler
  63 0010 00000000 		.word	MemManage_Handler
  64 0014 00000000 		.word	BusFault_Handler
  65 0018 00000000 		.word	UsageFault_Handler
  66 001c 00000000 		.word	0
  67 0020 00000000 		.word	0
  68 0024 00000000 		.word	0
  69 0028 00000000 		.word	0
  70 002c 00000000 		.word	SVC_Handler
  71 0030 00000000 		.word	DebugMon_Handler
  72 0034 00000000 		.word	0
  73 0038 00000000 		.word	PendSV_Handler
  74 003c 00000000 		.word	SysTick_Handler
  75 0040 00000000 		.word	WAKEUP_IRQHandler
  76 0044 00000000 		.word	WAKEUP_IRQHandler
  77 0048 00000000 		.word	WAKEUP_IRQHandler
  78 004c 00000000 		.word	WAKEUP_IRQHandler
  79 0050 00000000 		.word	WAKEUP_IRQHandler
  80 0054 00000000 		.word	WAKEUP_IRQHandler
  81 0058 00000000 		.word	WAKEUP_IRQHandler
  82 005c 00000000 		.word	WAKEUP_IRQHandler
  83 0060 00000000 		.word	WAKEUP_IRQHandler
  84 0064 00000000 		.word	WAKEUP_IRQHandler
  85 0068 00000000 		.word	WAKEUP_IRQHandler
  86 006c 00000000 		.word	WAKEUP_IRQHandler
  87 0070 00000000 		.word	WAKEUP_IRQHandler
  88 0074 00000000 		.word	C_CAN_IRQHandler
  89 0078 00000000 		.word	SSP1_IRQHandler
  90 007c 00000000 		.word	I2C_IRQHandler
  91 0080 00000000 		.word	CT16B0_IRQHandler
  92 0084 00000000 		.word	CT16B1_IRQHandler
  93 0088 00000000 		.word	CT32B0_IRQHandler
  94 008c 00000000 		.word	CT32B1_IRQHandler
  95 0090 00000000 		.word	SSP0_IRQHandler
  96 0094 00000000 		.word	UART_IRQHandler
  97 0098 00000000 		.word	0
  98 009c 00000000 		.word	0
  99 00a0 00000000 		.word	ADC_IRQHandler
 100 00a4 00000000 		.word	WDT_IRQHandler
 101 00a8 00000000 		.word	BOD_IRQHandler
 102 00ac 00000000 		.word	0
 103 00b0 00000000 		.word	PIO_3_IRQHandler
 104 00b4 00000000 		.word	PIO_2_IRQHandler
 105 00b8 00000000 		.word	PIO_1_IRQHandler
 106 00bc 00000000 		.word	PIO_0_IRQHandler
 107              		.text
 108              		.align	2
 109              		.weak	NMI_Handler
 110              		.code	16
 111              		.thumb_func
 112              		.type	NMI_Handler, %function
 113              	NMI_Handler:
 114              	.LFB0:
ARM GAS  /tmp/ccRwBG1I.s 			page 3


 115              		.file 1 "code/vectors_designstart.c"
   1:code/vectors_designstart.c **** /****************************************************************************
   2:code/vectors_designstart.c **** *  Copyright (c) 2011 by Michael Fischer. All rights reserved.
   3:code/vectors_designstart.c **** *
   4:code/vectors_designstart.c **** *  Redistribution and use in source and binary forms, with or without 
   5:code/vectors_designstart.c **** *  modification, are permitted provided that the following conditions 
   6:code/vectors_designstart.c **** *  are met:
   7:code/vectors_designstart.c **** *  
   8:code/vectors_designstart.c **** *  1. Redistributions of source code must retain the above copyright 
   9:code/vectors_designstart.c **** *     notice, this list of conditions and the following disclaimer.
  10:code/vectors_designstart.c **** *  2. Redistributions in binary form must reproduce the above copyright
  11:code/vectors_designstart.c **** *     notice, this list of conditions and the following disclaimer in the 
  12:code/vectors_designstart.c **** *     documentation and/or other materials provided with the distribution.
  13:code/vectors_designstart.c **** *  3. Neither the name of the author nor the names of its contributors may 
  14:code/vectors_designstart.c **** *     be used to endorse or promote products derived from this software 
  15:code/vectors_designstart.c **** *     without specific prior written permission.
  16:code/vectors_designstart.c **** *
  17:code/vectors_designstart.c **** *  THIS SOFTWARE IS PROVIDED BY THE COPYRIGHT HOLDERS AND CONTRIBUTORS 
  18:code/vectors_designstart.c **** *  "AS IS" AND ANY EXPRESS OR IMPLIED WARRANTIES, INCLUDING, BUT NOT 
  19:code/vectors_designstart.c **** *  LIMITED TO, THE IMPLIED WARRANTIES OF MERCHANTABILITY AND FITNESS 
  20:code/vectors_designstart.c **** *  FOR A PARTICULAR PURPOSE ARE DISCLAIMED. IN NO EVENT SHALL 
  21:code/vectors_designstart.c **** *  THE COPYRIGHT OWNER OR CONTRIBUTORS BE LIABLE FOR ANY DIRECT, INDIRECT, 
  22:code/vectors_designstart.c **** *  INCIDENTAL, SPECIAL, EXEMPLARY, OR CONSEQUENTIAL DAMAGES (INCLUDING, 
  23:code/vectors_designstart.c **** *  BUT NOT LIMITED TO, PROCUREMENT OF SUBSTITUTE GOODS OR SERVICES; LOSS 
  24:code/vectors_designstart.c **** *  OF USE, DATA, OR PROFITS; OR BUSINESS INTERRUPTION) HOWEVER CAUSED 
  25:code/vectors_designstart.c **** *  AND ON ANY THEORY OF LIABILITY, WHETHER IN CONTRACT, STRICT LIABILITY, 
  26:code/vectors_designstart.c **** *  OR TORT (INCLUDING NEGLIGENCE OR OTHERWISE) ARISING IN ANY WAY OUT OF 
  27:code/vectors_designstart.c **** *  THE USE OF THIS SOFTWARE, EVEN IF ADVISED OF THE POSSIBILITY OF 
  28:code/vectors_designstart.c **** *  SUCH DAMAGE.
  29:code/vectors_designstart.c **** *
  30:code/vectors_designstart.c **** ****************************************************************************
  31:code/vectors_designstart.c **** *  History:
  32:code/vectors_designstart.c **** *
  33:code/vectors_designstart.c **** *  10.04.2011  mifi  First Version for the LPC1114
  34:code/vectors_designstart.c **** ****************************************************************************/
  35:code/vectors_designstart.c **** #define __VECTORS_LPC1114_C__
  36:code/vectors_designstart.c **** 
  37:code/vectors_designstart.c **** /*=========================================================================*/
  38:code/vectors_designstart.c **** /*  DEFINE: All extern Data                                                */
  39:code/vectors_designstart.c **** /*=========================================================================*/
  40:code/vectors_designstart.c **** extern unsigned long _estack;
  41:code/vectors_designstart.c **** 
  42:code/vectors_designstart.c **** /*=========================================================================*/
  43:code/vectors_designstart.c **** /*  DEFINE: Prototypes                                                     */
  44:code/vectors_designstart.c **** /*=========================================================================*/
  45:code/vectors_designstart.c **** void ResetHandler(void);
  46:code/vectors_designstart.c **** 
  47:code/vectors_designstart.c **** void NMI_Handler (void) __attribute__((weak));
  48:code/vectors_designstart.c **** void HardFault_Handler (void) __attribute__((weak));
  49:code/vectors_designstart.c **** void MemManage_Handler (void) __attribute__((weak));
  50:code/vectors_designstart.c **** void BusFault_Handler (void) __attribute__((weak));
  51:code/vectors_designstart.c **** void UsageFault_Handler (void) __attribute__((weak));
  52:code/vectors_designstart.c **** void SVC_Handler (void) __attribute__((weak));
  53:code/vectors_designstart.c **** void DebugMon_Handler (void) __attribute__((weak));
  54:code/vectors_designstart.c **** void PendSV_Handler (void) __attribute__((weak));
  55:code/vectors_designstart.c **** void SysTick_Handler (void) __attribute__((weak));
  56:code/vectors_designstart.c **** 
ARM GAS  /tmp/ccRwBG1I.s 			page 4


  57:code/vectors_designstart.c **** void WAKEUP_IRQHandler (void) __attribute__((weak));
  58:code/vectors_designstart.c **** void C_CAN_IRQHandler (void) __attribute__((weak));
  59:code/vectors_designstart.c **** void SSP1_IRQHandler (void) __attribute__((weak));
  60:code/vectors_designstart.c **** void I2C_IRQHandler (void) __attribute__((weak));
  61:code/vectors_designstart.c **** void CT16B0_IRQHandler (void) __attribute__((weak));
  62:code/vectors_designstart.c **** void CT16B1_IRQHandler (void) __attribute__((weak));
  63:code/vectors_designstart.c **** void CT32B0_IRQHandler (void) __attribute__((weak));
  64:code/vectors_designstart.c **** void CT32B1_IRQHandler (void) __attribute__((weak));
  65:code/vectors_designstart.c **** void SSP0_IRQHandler (void) __attribute__((weak));
  66:code/vectors_designstart.c **** void UART_IRQHandler (void) __attribute__((weak));
  67:code/vectors_designstart.c **** void ADC_IRQHandler (void) __attribute__((weak));
  68:code/vectors_designstart.c **** void WDT_IRQHandler (void) __attribute__((weak));
  69:code/vectors_designstart.c **** void BOD_IRQHandler (void) __attribute__((weak));
  70:code/vectors_designstart.c **** void PIO_3_IRQHandler (void) __attribute__((weak));
  71:code/vectors_designstart.c **** void PIO_2_IRQHandler (void) __attribute__((weak));
  72:code/vectors_designstart.c **** void PIO_1_IRQHandler (void) __attribute__((weak));
  73:code/vectors_designstart.c **** void PIO_0_IRQHandler (void) __attribute__((weak));
  74:code/vectors_designstart.c **** 
  75:code/vectors_designstart.c **** /*=========================================================================*/
  76:code/vectors_designstart.c **** /*  DEFINE: All code exported                                              */
  77:code/vectors_designstart.c **** /*=========================================================================*/
  78:code/vectors_designstart.c **** /*
  79:code/vectors_designstart.c ****  * This is our vector table.
  80:code/vectors_designstart.c ****  */
  81:code/vectors_designstart.c **** __attribute__ ((section(".vectors"), used))
  82:code/vectors_designstart.c **** void (* const gVectors[])(void) = 
  83:code/vectors_designstart.c **** {
  84:code/vectors_designstart.c ****    (void (*)(void))((unsigned long)&_estack),
  85:code/vectors_designstart.c ****    ResetHandler,
  86:code/vectors_designstart.c ****    NMI_Handler,
  87:code/vectors_designstart.c ****    HardFault_Handler,
  88:code/vectors_designstart.c ****    MemManage_Handler,
  89:code/vectors_designstart.c ****    BusFault_Handler,
  90:code/vectors_designstart.c ****    UsageFault_Handler,
  91:code/vectors_designstart.c ****    0, 0, 0, 0,
  92:code/vectors_designstart.c ****    SVC_Handler,
  93:code/vectors_designstart.c ****    DebugMon_Handler,
  94:code/vectors_designstart.c ****    0,
  95:code/vectors_designstart.c ****    PendSV_Handler,
  96:code/vectors_designstart.c ****    SysTick_Handler,
  97:code/vectors_designstart.c **** 
  98:code/vectors_designstart.c ****    WAKEUP_IRQHandler,
  99:code/vectors_designstart.c ****    WAKEUP_IRQHandler,
 100:code/vectors_designstart.c ****    WAKEUP_IRQHandler,
 101:code/vectors_designstart.c ****    WAKEUP_IRQHandler,
 102:code/vectors_designstart.c ****    WAKEUP_IRQHandler,
 103:code/vectors_designstart.c ****    WAKEUP_IRQHandler,
 104:code/vectors_designstart.c ****    WAKEUP_IRQHandler,
 105:code/vectors_designstart.c ****    WAKEUP_IRQHandler,
 106:code/vectors_designstart.c ****    WAKEUP_IRQHandler,
 107:code/vectors_designstart.c ****    WAKEUP_IRQHandler,
 108:code/vectors_designstart.c ****    WAKEUP_IRQHandler,
 109:code/vectors_designstart.c ****    WAKEUP_IRQHandler,
 110:code/vectors_designstart.c ****    WAKEUP_IRQHandler,
 111:code/vectors_designstart.c ****    C_CAN_IRQHandler,
 112:code/vectors_designstart.c ****    SSP1_IRQHandler,
 113:code/vectors_designstart.c ****    I2C_IRQHandler,
ARM GAS  /tmp/ccRwBG1I.s 			page 5


 114:code/vectors_designstart.c ****    CT16B0_IRQHandler,
 115:code/vectors_designstart.c ****    CT16B1_IRQHandler,
 116:code/vectors_designstart.c ****    CT32B0_IRQHandler,
 117:code/vectors_designstart.c ****    CT32B1_IRQHandler,
 118:code/vectors_designstart.c ****    SSP0_IRQHandler,
 119:code/vectors_designstart.c ****    UART_IRQHandler,
 120:code/vectors_designstart.c ****    0, 0,
 121:code/vectors_designstart.c ****    ADC_IRQHandler,
 122:code/vectors_designstart.c ****    WDT_IRQHandler,
 123:code/vectors_designstart.c ****    BOD_IRQHandler,
 124:code/vectors_designstart.c ****    0,
 125:code/vectors_designstart.c ****    PIO_3_IRQHandler,
 126:code/vectors_designstart.c ****    PIO_2_IRQHandler,
 127:code/vectors_designstart.c ****    PIO_1_IRQHandler,
 128:code/vectors_designstart.c ****    PIO_0_IRQHandler
 129:code/vectors_designstart.c **** }; /* gVectors */
 130:code/vectors_designstart.c **** 
 131:code/vectors_designstart.c **** /*
 132:code/vectors_designstart.c ****  * And here are the weak interrupt handlers.
 133:code/vectors_designstart.c ****  */
 134:code/vectors_designstart.c **** void NMI_Handler (void) { while(1); }
 116              		.loc 1 134 0
 117              		.cfi_startproc
 118              		@ args = 0, pretend = 0, frame = 0
 119              		@ frame_needed = 0, uses_anonymous_args = 0
 120              		@ link register save eliminated.
 121              	.L2:
 122              		.loc 1 134 0 discriminator 1
 123 0000 FEE7     		b	.L2	@
 124              		.cfi_endproc
 125              	.LFE0:
 126              		.size	NMI_Handler, .-NMI_Handler
 127 0002 C046     		.align	2
 128              		.weak	HardFault_Handler
 129              		.code	16
 130              		.thumb_func
 131              		.type	HardFault_Handler, %function
 132              	HardFault_Handler:
 133              	.LFB1:
 135:code/vectors_designstart.c **** void HardFault_Handler (void) { while(1); }
 134              		.loc 1 135 0
 135              		.cfi_startproc
 136              		@ args = 0, pretend = 0, frame = 0
 137              		@ frame_needed = 0, uses_anonymous_args = 0
 138              		@ link register save eliminated.
 139              	.L4:
 140              		.loc 1 135 0 discriminator 1
 141 0004 FEE7     		b	.L4	@
 142              		.cfi_endproc
 143              	.LFE1:
 144              		.size	HardFault_Handler, .-HardFault_Handler
 145 0006 C046     		.align	2
 146              		.weak	MemManage_Handler
 147              		.code	16
 148              		.thumb_func
 149              		.type	MemManage_Handler, %function
 150              	MemManage_Handler:
ARM GAS  /tmp/ccRwBG1I.s 			page 6


 151              	.LFB2:
 136:code/vectors_designstart.c **** void MemManage_Handler (void) { while(1); }
 152              		.loc 1 136 0
 153              		.cfi_startproc
 154              		@ args = 0, pretend = 0, frame = 0
 155              		@ frame_needed = 0, uses_anonymous_args = 0
 156              		@ link register save eliminated.
 157              	.L6:
 158              		.loc 1 136 0 discriminator 1
 159 0008 FEE7     		b	.L6	@
 160              		.cfi_endproc
 161              	.LFE2:
 162              		.size	MemManage_Handler, .-MemManage_Handler
 163 000a C046     		.align	2
 164              		.weak	BusFault_Handler
 165              		.code	16
 166              		.thumb_func
 167              		.type	BusFault_Handler, %function
 168              	BusFault_Handler:
 169              	.LFB3:
 137:code/vectors_designstart.c **** void BusFault_Handler (void) { while(1); }
 170              		.loc 1 137 0
 171              		.cfi_startproc
 172              		@ args = 0, pretend = 0, frame = 0
 173              		@ frame_needed = 0, uses_anonymous_args = 0
 174              		@ link register save eliminated.
 175              	.L8:
 176              		.loc 1 137 0 discriminator 1
 177 000c FEE7     		b	.L8	@
 178              		.cfi_endproc
 179              	.LFE3:
 180              		.size	BusFault_Handler, .-BusFault_Handler
 181 000e C046     		.align	2
 182              		.weak	UsageFault_Handler
 183              		.code	16
 184              		.thumb_func
 185              		.type	UsageFault_Handler, %function
 186              	UsageFault_Handler:
 187              	.LFB4:
 138:code/vectors_designstart.c **** void UsageFault_Handler (void) { while(1); }
 188              		.loc 1 138 0
 189              		.cfi_startproc
 190              		@ args = 0, pretend = 0, frame = 0
 191              		@ frame_needed = 0, uses_anonymous_args = 0
 192              		@ link register save eliminated.
 193              	.L10:
 194              		.loc 1 138 0 discriminator 1
 195 0010 FEE7     		b	.L10	@
 196              		.cfi_endproc
 197              	.LFE4:
 198              		.size	UsageFault_Handler, .-UsageFault_Handler
 199 0012 C046     		.align	2
 200              		.weak	SVC_Handler
 201              		.code	16
 202              		.thumb_func
 203              		.type	SVC_Handler, %function
 204              	SVC_Handler:
ARM GAS  /tmp/ccRwBG1I.s 			page 7


 205              	.LFB5:
 139:code/vectors_designstart.c **** void SVC_Handler (void) { while(1); }
 206              		.loc 1 139 0
 207              		.cfi_startproc
 208              		@ args = 0, pretend = 0, frame = 0
 209              		@ frame_needed = 0, uses_anonymous_args = 0
 210              		@ link register save eliminated.
 211              	.L12:
 212              		.loc 1 139 0 discriminator 1
 213 0014 FEE7     		b	.L12	@
 214              		.cfi_endproc
 215              	.LFE5:
 216              		.size	SVC_Handler, .-SVC_Handler
 217 0016 C046     		.align	2
 218              		.weak	DebugMon_Handler
 219              		.code	16
 220              		.thumb_func
 221              		.type	DebugMon_Handler, %function
 222              	DebugMon_Handler:
 223              	.LFB6:
 140:code/vectors_designstart.c **** void DebugMon_Handler (void) { while(1); }
 224              		.loc 1 140 0
 225              		.cfi_startproc
 226              		@ args = 0, pretend = 0, frame = 0
 227              		@ frame_needed = 0, uses_anonymous_args = 0
 228              		@ link register save eliminated.
 229              	.L14:
 230              		.loc 1 140 0 discriminator 1
 231 0018 FEE7     		b	.L14	@
 232              		.cfi_endproc
 233              	.LFE6:
 234              		.size	DebugMon_Handler, .-DebugMon_Handler
 235 001a C046     		.align	2
 236              		.weak	PendSV_Handler
 237              		.code	16
 238              		.thumb_func
 239              		.type	PendSV_Handler, %function
 240              	PendSV_Handler:
 241              	.LFB7:
 141:code/vectors_designstart.c **** void PendSV_Handler (void) { while(1); }
 242              		.loc 1 141 0
 243              		.cfi_startproc
 244              		@ args = 0, pretend = 0, frame = 0
 245              		@ frame_needed = 0, uses_anonymous_args = 0
 246              		@ link register save eliminated.
 247              	.L16:
 248              		.loc 1 141 0 discriminator 1
 249 001c FEE7     		b	.L16	@
 250              		.cfi_endproc
 251              	.LFE7:
 252              		.size	PendSV_Handler, .-PendSV_Handler
 253 001e C046     		.align	2
 254              		.weak	SysTick_Handler
 255              		.code	16
 256              		.thumb_func
 257              		.type	SysTick_Handler, %function
 258              	SysTick_Handler:
ARM GAS  /tmp/ccRwBG1I.s 			page 8


 259              	.LFB8:
 142:code/vectors_designstart.c **** void SysTick_Handler (void) { while(1); }
 260              		.loc 1 142 0
 261              		.cfi_startproc
 262              		@ args = 0, pretend = 0, frame = 0
 263              		@ frame_needed = 0, uses_anonymous_args = 0
 264              		@ link register save eliminated.
 265              	.L18:
 266              		.loc 1 142 0 discriminator 1
 267 0020 FEE7     		b	.L18	@
 268              		.cfi_endproc
 269              	.LFE8:
 270              		.size	SysTick_Handler, .-SysTick_Handler
 271 0022 C046     		.align	2
 272              		.weak	WAKEUP_IRQHandler
 273              		.code	16
 274              		.thumb_func
 275              		.type	WAKEUP_IRQHandler, %function
 276              	WAKEUP_IRQHandler:
 277              	.LFB9:
 143:code/vectors_designstart.c **** 
 144:code/vectors_designstart.c **** void WAKEUP_IRQHandler (void) { while(1); }
 278              		.loc 1 144 0
 279              		.cfi_startproc
 280              		@ args = 0, pretend = 0, frame = 0
 281              		@ frame_needed = 0, uses_anonymous_args = 0
 282              		@ link register save eliminated.
 283              	.L20:
 284              		.loc 1 144 0 discriminator 1
 285 0024 FEE7     		b	.L20	@
 286              		.cfi_endproc
 287              	.LFE9:
 288              		.size	WAKEUP_IRQHandler, .-WAKEUP_IRQHandler
 289 0026 C046     		.align	2
 290              		.weak	C_CAN_IRQHandler
 291              		.code	16
 292              		.thumb_func
 293              		.type	C_CAN_IRQHandler, %function
 294              	C_CAN_IRQHandler:
 295              	.LFB10:
 145:code/vectors_designstart.c **** void C_CAN_IRQHandler (void) { while(1); }
 296              		.loc 1 145 0
 297              		.cfi_startproc
 298              		@ args = 0, pretend = 0, frame = 0
 299              		@ frame_needed = 0, uses_anonymous_args = 0
 300              		@ link register save eliminated.
 301              	.L22:
 302              		.loc 1 145 0 discriminator 1
 303 0028 FEE7     		b	.L22	@
 304              		.cfi_endproc
 305              	.LFE10:
 306              		.size	C_CAN_IRQHandler, .-C_CAN_IRQHandler
 307 002a C046     		.align	2
 308              		.weak	SSP1_IRQHandler
 309              		.code	16
 310              		.thumb_func
 311              		.type	SSP1_IRQHandler, %function
ARM GAS  /tmp/ccRwBG1I.s 			page 9


 312              	SSP1_IRQHandler:
 313              	.LFB11:
 146:code/vectors_designstart.c **** void SSP1_IRQHandler (void) { while(1); }
 314              		.loc 1 146 0
 315              		.cfi_startproc
 316              		@ args = 0, pretend = 0, frame = 0
 317              		@ frame_needed = 0, uses_anonymous_args = 0
 318              		@ link register save eliminated.
 319              	.L24:
 320              		.loc 1 146 0 discriminator 1
 321 002c FEE7     		b	.L24	@
 322              		.cfi_endproc
 323              	.LFE11:
 324              		.size	SSP1_IRQHandler, .-SSP1_IRQHandler
 325 002e C046     		.align	2
 326              		.weak	I2C_IRQHandler
 327              		.code	16
 328              		.thumb_func
 329              		.type	I2C_IRQHandler, %function
 330              	I2C_IRQHandler:
 331              	.LFB12:
 147:code/vectors_designstart.c **** void I2C_IRQHandler (void) { while(1); }
 332              		.loc 1 147 0
 333              		.cfi_startproc
 334              		@ args = 0, pretend = 0, frame = 0
 335              		@ frame_needed = 0, uses_anonymous_args = 0
 336              		@ link register save eliminated.
 337              	.L26:
 338              		.loc 1 147 0 discriminator 1
 339 0030 FEE7     		b	.L26	@
 340              		.cfi_endproc
 341              	.LFE12:
 342              		.size	I2C_IRQHandler, .-I2C_IRQHandler
 343 0032 C046     		.align	2
 344              		.weak	CT16B0_IRQHandler
 345              		.code	16
 346              		.thumb_func
 347              		.type	CT16B0_IRQHandler, %function
 348              	CT16B0_IRQHandler:
 349              	.LFB13:
 148:code/vectors_designstart.c **** void CT16B0_IRQHandler (void) { while(1); }
 350              		.loc 1 148 0
 351              		.cfi_startproc
 352              		@ args = 0, pretend = 0, frame = 0
 353              		@ frame_needed = 0, uses_anonymous_args = 0
 354              		@ link register save eliminated.
 355              	.L28:
 356              		.loc 1 148 0 discriminator 1
 357 0034 FEE7     		b	.L28	@
 358              		.cfi_endproc
 359              	.LFE13:
 360              		.size	CT16B0_IRQHandler, .-CT16B0_IRQHandler
 361 0036 C046     		.align	2
 362              		.weak	CT16B1_IRQHandler
 363              		.code	16
 364              		.thumb_func
 365              		.type	CT16B1_IRQHandler, %function
ARM GAS  /tmp/ccRwBG1I.s 			page 10


 366              	CT16B1_IRQHandler:
 367              	.LFB14:
 149:code/vectors_designstart.c **** void CT16B1_IRQHandler (void) { while(1); }
 368              		.loc 1 149 0
 369              		.cfi_startproc
 370              		@ args = 0, pretend = 0, frame = 0
 371              		@ frame_needed = 0, uses_anonymous_args = 0
 372              		@ link register save eliminated.
 373              	.L30:
 374              		.loc 1 149 0 discriminator 1
 375 0038 FEE7     		b	.L30	@
 376              		.cfi_endproc
 377              	.LFE14:
 378              		.size	CT16B1_IRQHandler, .-CT16B1_IRQHandler
 379 003a C046     		.align	2
 380              		.weak	CT32B0_IRQHandler
 381              		.code	16
 382              		.thumb_func
 383              		.type	CT32B0_IRQHandler, %function
 384              	CT32B0_IRQHandler:
 385              	.LFB15:
 150:code/vectors_designstart.c **** void CT32B0_IRQHandler (void) { while(1); }
 386              		.loc 1 150 0
 387              		.cfi_startproc
 388              		@ args = 0, pretend = 0, frame = 0
 389              		@ frame_needed = 0, uses_anonymous_args = 0
 390              		@ link register save eliminated.
 391              	.L32:
 392              		.loc 1 150 0 discriminator 1
 393 003c FEE7     		b	.L32	@
 394              		.cfi_endproc
 395              	.LFE15:
 396              		.size	CT32B0_IRQHandler, .-CT32B0_IRQHandler
 397 003e C046     		.align	2
 398              		.weak	CT32B1_IRQHandler
 399              		.code	16
 400              		.thumb_func
 401              		.type	CT32B1_IRQHandler, %function
 402              	CT32B1_IRQHandler:
 403              	.LFB16:
 151:code/vectors_designstart.c **** void CT32B1_IRQHandler (void) { while(1); }
 404              		.loc 1 151 0
 405              		.cfi_startproc
 406              		@ args = 0, pretend = 0, frame = 0
 407              		@ frame_needed = 0, uses_anonymous_args = 0
 408              		@ link register save eliminated.
 409              	.L34:
 410              		.loc 1 151 0 discriminator 1
 411 0040 FEE7     		b	.L34	@
 412              		.cfi_endproc
 413              	.LFE16:
 414              		.size	CT32B1_IRQHandler, .-CT32B1_IRQHandler
 415 0042 C046     		.align	2
 416              		.weak	SSP0_IRQHandler
 417              		.code	16
 418              		.thumb_func
 419              		.type	SSP0_IRQHandler, %function
ARM GAS  /tmp/ccRwBG1I.s 			page 11


 420              	SSP0_IRQHandler:
 421              	.LFB17:
 152:code/vectors_designstart.c **** void SSP0_IRQHandler (void) { while(1); }
 422              		.loc 1 152 0
 423              		.cfi_startproc
 424              		@ args = 0, pretend = 0, frame = 0
 425              		@ frame_needed = 0, uses_anonymous_args = 0
 426              		@ link register save eliminated.
 427              	.L36:
 428              		.loc 1 152 0 discriminator 1
 429 0044 FEE7     		b	.L36	@
 430              		.cfi_endproc
 431              	.LFE17:
 432              		.size	SSP0_IRQHandler, .-SSP0_IRQHandler
 433 0046 C046     		.align	2
 434              		.weak	UART_IRQHandler
 435              		.code	16
 436              		.thumb_func
 437              		.type	UART_IRQHandler, %function
 438              	UART_IRQHandler:
 439              	.LFB18:
 153:code/vectors_designstart.c **** void UART_IRQHandler (void) { while(1); }
 440              		.loc 1 153 0
 441              		.cfi_startproc
 442              		@ args = 0, pretend = 0, frame = 0
 443              		@ frame_needed = 0, uses_anonymous_args = 0
 444              		@ link register save eliminated.
 445              	.L38:
 446              		.loc 1 153 0 discriminator 1
 447 0048 FEE7     		b	.L38	@
 448              		.cfi_endproc
 449              	.LFE18:
 450              		.size	UART_IRQHandler, .-UART_IRQHandler
 451 004a C046     		.align	2
 452              		.weak	ADC_IRQHandler
 453              		.code	16
 454              		.thumb_func
 455              		.type	ADC_IRQHandler, %function
 456              	ADC_IRQHandler:
 457              	.LFB19:
 154:code/vectors_designstart.c **** void ADC_IRQHandler (void) { while(1); }
 458              		.loc 1 154 0
 459              		.cfi_startproc
 460              		@ args = 0, pretend = 0, frame = 0
 461              		@ frame_needed = 0, uses_anonymous_args = 0
 462              		@ link register save eliminated.
 463              	.L40:
 464              		.loc 1 154 0 discriminator 1
 465 004c FEE7     		b	.L40	@
 466              		.cfi_endproc
 467              	.LFE19:
 468              		.size	ADC_IRQHandler, .-ADC_IRQHandler
 469 004e C046     		.align	2
 470              		.weak	WDT_IRQHandler
 471              		.code	16
 472              		.thumb_func
 473              		.type	WDT_IRQHandler, %function
ARM GAS  /tmp/ccRwBG1I.s 			page 12


 474              	WDT_IRQHandler:
 475              	.LFB20:
 155:code/vectors_designstart.c **** void WDT_IRQHandler (void) { while(1); }
 476              		.loc 1 155 0
 477              		.cfi_startproc
 478              		@ args = 0, pretend = 0, frame = 0
 479              		@ frame_needed = 0, uses_anonymous_args = 0
 480              		@ link register save eliminated.
 481              	.L42:
 482              		.loc 1 155 0 discriminator 1
 483 0050 FEE7     		b	.L42	@
 484              		.cfi_endproc
 485              	.LFE20:
 486              		.size	WDT_IRQHandler, .-WDT_IRQHandler
 487 0052 C046     		.align	2
 488              		.weak	BOD_IRQHandler
 489              		.code	16
 490              		.thumb_func
 491              		.type	BOD_IRQHandler, %function
 492              	BOD_IRQHandler:
 493              	.LFB21:
 156:code/vectors_designstart.c **** void BOD_IRQHandler (void) { while(1); }
 494              		.loc 1 156 0
 495              		.cfi_startproc
 496              		@ args = 0, pretend = 0, frame = 0
 497              		@ frame_needed = 0, uses_anonymous_args = 0
 498              		@ link register save eliminated.
 499              	.L44:
 500              		.loc 1 156 0 discriminator 1
 501 0054 FEE7     		b	.L44	@
 502              		.cfi_endproc
 503              	.LFE21:
 504              		.size	BOD_IRQHandler, .-BOD_IRQHandler
 505 0056 C046     		.align	2
 506              		.weak	PIO_3_IRQHandler
 507              		.code	16
 508              		.thumb_func
 509              		.type	PIO_3_IRQHandler, %function
 510              	PIO_3_IRQHandler:
 511              	.LFB22:
 157:code/vectors_designstart.c **** void PIO_3_IRQHandler (void) { while(1); }
 512              		.loc 1 157 0
 513              		.cfi_startproc
 514              		@ args = 0, pretend = 0, frame = 0
 515              		@ frame_needed = 0, uses_anonymous_args = 0
 516              		@ link register save eliminated.
 517              	.L46:
 518              		.loc 1 157 0 discriminator 1
 519 0058 FEE7     		b	.L46	@
 520              		.cfi_endproc
 521              	.LFE22:
 522              		.size	PIO_3_IRQHandler, .-PIO_3_IRQHandler
 523 005a C046     		.align	2
 524              		.weak	PIO_2_IRQHandler
 525              		.code	16
 526              		.thumb_func
 527              		.type	PIO_2_IRQHandler, %function
ARM GAS  /tmp/ccRwBG1I.s 			page 13


 528              	PIO_2_IRQHandler:
 529              	.LFB23:
 158:code/vectors_designstart.c **** void PIO_2_IRQHandler (void) { while(1); }
 530              		.loc 1 158 0
 531              		.cfi_startproc
 532              		@ args = 0, pretend = 0, frame = 0
 533              		@ frame_needed = 0, uses_anonymous_args = 0
 534              		@ link register save eliminated.
 535              	.L48:
 536              		.loc 1 158 0 discriminator 1
 537 005c FEE7     		b	.L48	@
 538              		.cfi_endproc
 539              	.LFE23:
 540              		.size	PIO_2_IRQHandler, .-PIO_2_IRQHandler
 541 005e C046     		.align	2
 542              		.weak	PIO_1_IRQHandler
 543              		.code	16
 544              		.thumb_func
 545              		.type	PIO_1_IRQHandler, %function
 546              	PIO_1_IRQHandler:
 547              	.LFB24:
 159:code/vectors_designstart.c **** void PIO_1_IRQHandler (void) { while(1); }
 548              		.loc 1 159 0
 549              		.cfi_startproc
 550              		@ args = 0, pretend = 0, frame = 0
 551              		@ frame_needed = 0, uses_anonymous_args = 0
 552              		@ link register save eliminated.
 553              	.L50:
 554              		.loc 1 159 0 discriminator 1
 555 0060 FEE7     		b	.L50	@
 556              		.cfi_endproc
 557              	.LFE24:
 558              		.size	PIO_1_IRQHandler, .-PIO_1_IRQHandler
 559 0062 C046     		.align	2
 560              		.weak	PIO_0_IRQHandler
 561              		.code	16
 562              		.thumb_func
 563              		.type	PIO_0_IRQHandler, %function
 564              	PIO_0_IRQHandler:
 565              	.LFB25:
 160:code/vectors_designstart.c **** void PIO_0_IRQHandler (void) { while(1); }
 566              		.loc 1 160 0
 567              		.cfi_startproc
 568              		@ args = 0, pretend = 0, frame = 0
 569              		@ frame_needed = 0, uses_anonymous_args = 0
 570              		@ link register save eliminated.
 571              	.L52:
 572              		.loc 1 160 0 discriminator 1
 573 0064 FEE7     		b	.L52	@
 574              		.cfi_endproc
 575              	.LFE25:
 576              		.size	PIO_0_IRQHandler, .-PIO_0_IRQHandler
 577              	.Letext0: