ARM GAS  /tmp/ccONq56c.s 			page 1


   1              		.syntax unified
   2              		.cpu cortex-m0
   3              		.fpu softvfp
   4              		.eabi_attribute 20, 1	@ Tag_ABI_FP_denormal
   5              		.eabi_attribute 21, 1	@ Tag_ABI_FP_exceptions
   6              		.eabi_attribute 23, 3	@ Tag_ABI_FP_number_model
   7              		.eabi_attribute 24, 1	@ Tag_ABI_align8_needed
   8              		.eabi_attribute 25, 1	@ Tag_ABI_align8_preserved
   9              		.eabi_attribute 26, 1	@ Tag_ABI_enum_size
  10              		.eabi_attribute 30, 6	@ Tag_ABI_optimization_goals
  11              		.eabi_attribute 34, 0	@ Tag_CPU_unaligned_access
  12              		.eabi_attribute 18, 4	@ Tag_ABI_PCS_wchar_t
  13              		.file	"main.c"
  14              	@ GNU C11 (GNU Tools for ARM Embedded Processors) version 5.4.1 20160919 (release) [ARM/embedded-5-
  15              	@	compiled by GNU C version 4.7.4, GMP version 4.3.2, MPFR version 2.4.2, MPC version 0.8.1
  16              	@ GGC heuristics: --param ggc-min-expand=100 --param ggc-min-heapsize=131072
  17              	@ options passed:  -I . -I ./inc -imultilib armv6-m
  18              	@ -iprefix /srv/gcc-arm-none-eabi-5_4-2016q3/bin/../lib/gcc/arm-none-eabi/5.4.1/
  19              	@ -isysroot /srv/gcc-arm-none-eabi-5_4-2016q3/bin/../arm-none-eabi
  20              	@ -MD code/main.d -MF .dep/main.o.d -MP -MQ code/main.o -D__USES_INITFINI__
  21              	@ -D RUN_FROM_FLASH=1 code/main.c -mcpu=cortex-m0 -mthumb
  22              	@ -auxbase-strip code/main.o -gdwarf-2 -O0 -Wall -Wstrict-prototypes
  23              	@ -fomit-frame-pointer -fverbose-asm
  24              	@ options enabled:  -faggressive-loop-optimizations -fauto-inc-dec
  25              	@ -fchkp-check-incomplete-type -fchkp-check-read -fchkp-check-write
  26              	@ -fchkp-instrument-calls -fchkp-narrow-bounds -fchkp-optimize
  27              	@ -fchkp-store-bounds -fchkp-use-static-bounds
  28              	@ -fchkp-use-static-const-bounds -fchkp-use-wrappers -fcommon
  29              	@ -fdelete-null-pointer-checks -fdwarf2-cfi-asm -fearly-inlining
  30              	@ -feliminate-unused-debug-types -ffunction-cse -fgcse-lm -fgnu-runtime
  31              	@ -fgnu-unique -fident -finline-atomics -fira-hoist-pressure
  32              	@ -fira-share-save-slots -fira-share-spill-slots -fivopts
  33              	@ -fkeep-static-consts -fleading-underscore -flifetime-dse
  34              	@ -flto-odr-type-merging -fmath-errno -fmerge-debug-strings
  35              	@ -fomit-frame-pointer -fpeephole -fprefetch-loop-arrays
  36              	@ -freg-struct-return -fsched-critical-path-heuristic
  37              	@ -fsched-dep-count-heuristic -fsched-group-heuristic -fsched-interblock
  38              	@ -fsched-last-insn-heuristic -fsched-rank-heuristic -fsched-spec
  39              	@ -fsched-spec-insn-heuristic -fsched-stalled-insns-dep
  40              	@ -fsemantic-interposition -fshow-column -fsigned-zeros
  41              	@ -fsplit-ivs-in-unroller -fstdarg-opt -fstrict-volatile-bitfields
  42              	@ -fsync-libcalls -ftrapping-math -ftree-coalesce-vars -ftree-cselim
  43              	@ -ftree-forwprop -ftree-loop-if-convert -ftree-loop-im -ftree-loop-ivcanon
  44              	@ -ftree-loop-optimize -ftree-parallelize-loops= -ftree-phiprop
  45              	@ -ftree-reassoc -ftree-scev-cprop -funit-at-a-time -fverbose-asm
  46              	@ -fzero-initialized-in-bss -mlittle-endian -mpic-data-is-text-relative
  47              	@ -msched-prolog -mthumb -mvectorize-with-neon-quad
  48              	
  49              		.text
  50              	.Ltext0:
  51              		.cfi_sections	.debug_frame
  52              		.global	OLED
  53              		.data
  54              		.align	2
  55              		.type	OLED, %object
  56              		.size	OLED, 4
  57              	OLED:
ARM GAS  /tmp/ccONq56c.s 			page 2


  58 0000 000000C0 		.word	-1073741824
  59              		.global	SEGMENT
  60              		.align	2
  61              		.type	SEGMENT, %object
  62              		.size	SEGMENT, 4
  63              	SEGMENT:
  64 0004 000000A0 		.word	-1610612736
  65              		.global	TIMER
  66              		.align	2
  67              		.type	TIMER, %object
  68              		.size	TIMER, 4
  69              	TIMER:
  70 0008 00000080 		.word	-2147483648
  71              		.global	SENSOR
  72              		.align	2
  73              		.type	SENSOR, %object
  74              		.size	SENSOR, 4
  75              	SENSOR:
  76 000c 00000060 		.word	1610612736
  77              		.global	BUTTON
  78              		.align	2
  79              		.type	BUTTON, %object
  80              		.size	BUTTON, 4
  81              	BUTTON:
  82 0010 00000040 		.word	1073741824
  83              		.text
  84              		.align	2
  85              		.global	setting
  86              		.code	16
  87              		.thumb_func
  88              		.type	setting, %function
  89              	setting:
  90              	.LFB0:
  91              		.file 1 "code/main.c"
   1:code/main.c   **** //------------------------------------------------------------------------------
   2:code/main.c   **** // Titile:  Cortex M0 Software Main C File
   3:code/main.c   **** // Author:  ChangXin Shen & Clark Pu
   4:code/main.c   **** // Team:    C4 Chip Designed
   5:code/main.c   **** // Version: 5.5
   6:code/main.c   **** // Verification: Not Verified
   7:code/main.c   **** // Comment: Optimizition on code writing and ROM comsuption by Clark. Using UTF-8
   8:code/main.c   **** //------------------------------------------------------------------------------
   9:code/main.c   **** 
  10:code/main.c   **** #define __MAIN_C__
  11:code/main.c   **** #include <stdint.h>
  12:code/main.c   **** #include <stdbool.h>
  13:code/main.c   **** 
  14:code/main.c   **** //------------------------------------------------------------------------------
  15:code/main.c   **** // Hardware Address
  16:code/main.c   **** //------------------------------------------------------------------------------
  17:code/main.c   **** 
  18:code/main.c   **** #define AHB_OLEDR_MANAGER_BASE   0xC0000000
  19:code/main.c   **** #define AHB_SEGMENT_MANAGER_BASE 0xA0000000
  20:code/main.c   **** #define AHB_TIMER_BASE           0x80000000
  21:code/main.c   **** #define AHB_SENSOR_MANAGER_BASE  0x60000000
  22:code/main.c   **** #define AHB_BUTTON_MANAGER_BASE  0x40000000
  23:code/main.c   **** volatile uint32_t* OLED    = (volatile uint32_t*) AHB_OLEDR_MANAGER_BASE;
ARM GAS  /tmp/ccONq56c.s 			page 3


  24:code/main.c   **** // OLED[0]        X              0xC0000000
  25:code/main.c   **** // OLED[1]        Y              0xC0000004
  26:code/main.c   **** // OLED[2]        Colour         0xC0000008
  27:code/main.c   **** // OLED[3]        Flag           0xC000000A
  28:code/main.c   **** volatile uint32_t* SEGMENT = (volatile uint32_t*) AHB_SEGMENT_MANAGER_BASE;
  29:code/main.c   **** // SEGMENT[0]     Fraction       0xA0000000
  30:code/main.c   **** // SEGMENT[1]     Integer        0xA0000004
  31:code/main.c   **** // SEGMENT[2]     Mode           0xA0000008
  32:code/main.c   **** volatile uint32_t* TIMER   = (volatile uint32_t*) AHB_TIMER_BASE;
  33:code/main.c   **** // TIMER[0]       Long           0x80000000 
  34:code/main.c   **** // TIMER[1]       Short          0x80000004 
  35:code/main.c   **** // TIMER[2]       Flag           0x80000008 
  36:code/main.c   **** volatile uint32_t* SENSOR  = (volatile uint32_t*) AHB_SENSOR_MANAGER_BASE;
  37:code/main.c   **** // SENSOR[0]      Fork           0x60000000           
  38:code/main.c   **** // SENSOR[1]      Crank          0x60000004       
  39:code/main.c   **** volatile uint32_t* BUTTON  = (volatile uint32_t*) AHB_BUTTON_MANAGER_BASE;
  40:code/main.c   **** // BUTTON[0]      DayNight       0x40000000
  41:code/main.c   **** // BUTTON[1]      Mode           0x40000004
  42:code/main.c   **** // BUTTON[2]      Trip           0x40000008
  43:code/main.c   **** // BUTTON[3]      Setting        0x4000000A
  44:code/main.c   **** // BUTTON[4]      NewData        0x40000010
  45:code/main.c   **** 
  46:code/main.c   **** //------------------------------------------------------------------------------
  47:code/main.c   **** // Hardware Access Functions
  48:code/main.c   **** //------------------------------------------------------------------------------
  49:code/main.c   **** 
  50:code/main.c   **** bool             setting(void){return BUTTON[3]?true:false;}
  92              		.loc 1 50 0
  93              		.cfi_startproc
  94              		@ args = 0, pretend = 0, frame = 0
  95              		@ frame_needed = 0, uses_anonymous_args = 0
  96              		@ link register save eliminated.
  97              		.loc 1 50 0
  98 0000 044B     		ldr	r3, .L3	@ tmp115,
  99 0002 1B68     		ldr	r3, [r3]	@ D.4508, BUTTON
 100 0004 0C33     		adds	r3, r3, #12	@ D.4508,
 101 0006 1B68     		ldr	r3, [r3]	@ D.4509, *_3
 102 0008 5A1E     		subs	r2, r3, #1	@ tmp118, D.4509
 103 000a 9341     		sbcs	r3, r3, r2	@ tmp117, D.4509, tmp118
 104 000c DBB2     		uxtb	r3, r3	@ D.4510, tmp116
 105 000e 1800     		movs	r0, r3	@, <retval>
 106              		@ sp needed	@
 107 0010 7047     		bx	lr
 108              	.L4:
 109 0012 C046     		.align	2
 110              	.L3:
 111 0014 00000000 		.word	BUTTON
 112              		.cfi_endproc
 113              	.LFE0:
 114              		.size	setting, .-setting
 115              		.align	2
 116              		.global	press_trip
 117              		.code	16
 118              		.thumb_func
 119              		.type	press_trip, %function
 120              	press_trip:
 121              	.LFB1:
ARM GAS  /tmp/ccONq56c.s 			page 4


  51:code/main.c   **** bool          press_trip(void){return BUTTON[2]?true:false;}
 122              		.loc 1 51 0
 123              		.cfi_startproc
 124              		@ args = 0, pretend = 0, frame = 0
 125              		@ frame_needed = 0, uses_anonymous_args = 0
 126              		@ link register save eliminated.
 127              		.loc 1 51 0
 128 0018 044B     		ldr	r3, .L7	@ tmp115,
 129 001a 1B68     		ldr	r3, [r3]	@ D.4511, BUTTON
 130 001c 0833     		adds	r3, r3, #8	@ D.4511,
 131 001e 1B68     		ldr	r3, [r3]	@ D.4512, *_3
 132 0020 5A1E     		subs	r2, r3, #1	@ tmp118, D.4512
 133 0022 9341     		sbcs	r3, r3, r2	@ tmp117, D.4512, tmp118
 134 0024 DBB2     		uxtb	r3, r3	@ D.4513, tmp116
 135 0026 1800     		movs	r0, r3	@, <retval>
 136              		@ sp needed	@
 137 0028 7047     		bx	lr
 138              	.L8:
 139 002a C046     		.align	2
 140              	.L7:
 141 002c 00000000 		.word	BUTTON
 142              		.cfi_endproc
 143              	.LFE1:
 144              		.size	press_trip, .-press_trip
 145              		.align	2
 146              		.global	press_mode
 147              		.code	16
 148              		.thumb_func
 149              		.type	press_mode, %function
 150              	press_mode:
 151              	.LFB2:
  52:code/main.c   **** bool          press_mode(void){return BUTTON[1]?true:false;}
 152              		.loc 1 52 0
 153              		.cfi_startproc
 154              		@ args = 0, pretend = 0, frame = 0
 155              		@ frame_needed = 0, uses_anonymous_args = 0
 156              		@ link register save eliminated.
 157              		.loc 1 52 0
 158 0030 044B     		ldr	r3, .L11	@ tmp115,
 159 0032 1B68     		ldr	r3, [r3]	@ D.4514, BUTTON
 160 0034 0433     		adds	r3, r3, #4	@ D.4514,
 161 0036 1B68     		ldr	r3, [r3]	@ D.4515, *_3
 162 0038 5A1E     		subs	r2, r3, #1	@ tmp118, D.4515
 163 003a 9341     		sbcs	r3, r3, r2	@ tmp117, D.4515, tmp118
 164 003c DBB2     		uxtb	r3, r3	@ D.4516, tmp116
 165 003e 1800     		movs	r0, r3	@, <retval>
 166              		@ sp needed	@
 167 0040 7047     		bx	lr
 168              	.L12:
 169 0042 C046     		.align	2
 170              	.L11:
 171 0044 00000000 		.word	BUTTON
 172              		.cfi_endproc
 173              	.LFE2:
 174              		.size	press_mode, .-press_mode
 175              		.align	2
 176              		.global	press_d_mode
ARM GAS  /tmp/ccONq56c.s 			page 5


 177              		.code	16
 178              		.thumb_func
 179              		.type	press_d_mode, %function
 180              	press_d_mode:
 181              	.LFB3:
  53:code/main.c   **** bool        press_d_mode(void){return BUTTON[0]?true:false;}
 182              		.loc 1 53 0
 183              		.cfi_startproc
 184              		@ args = 0, pretend = 0, frame = 0
 185              		@ frame_needed = 0, uses_anonymous_args = 0
 186              		@ link register save eliminated.
 187              		.loc 1 53 0
 188 0048 034B     		ldr	r3, .L15	@ tmp114,
 189 004a 1B68     		ldr	r3, [r3]	@ D.4517, BUTTON
 190 004c 1B68     		ldr	r3, [r3]	@ D.4518, *_2
 191 004e 5A1E     		subs	r2, r3, #1	@ tmp117, D.4518
 192 0050 9341     		sbcs	r3, r3, r2	@ tmp116, D.4518, tmp117
 193 0052 DBB2     		uxtb	r3, r3	@ D.4519, tmp115
 194 0054 1800     		movs	r0, r3	@, <retval>
 195              		@ sp needed	@
 196 0056 7047     		bx	lr
 197              	.L16:
 198              		.align	2
 199              	.L15:
 200 0058 00000000 		.word	BUTTON
 201              		.cfi_endproc
 202              	.LFE3:
 203              		.size	press_d_mode, .-press_d_mode
 204              		.align	2
 205              		.global	check_button
 206              		.code	16
 207              		.thumb_func
 208              		.type	check_button, %function
 209              	check_button:
 210              	.LFB4:
  54:code/main.c   **** bool        check_button(void){return BUTTON[4]?true:false;}
 211              		.loc 1 54 0
 212              		.cfi_startproc
 213              		@ args = 0, pretend = 0, frame = 0
 214              		@ frame_needed = 0, uses_anonymous_args = 0
 215              		@ link register save eliminated.
 216              		.loc 1 54 0
 217 005c 044B     		ldr	r3, .L19	@ tmp115,
 218 005e 1B68     		ldr	r3, [r3]	@ D.4520, BUTTON
 219 0060 1033     		adds	r3, r3, #16	@ D.4520,
 220 0062 1B68     		ldr	r3, [r3]	@ D.4521, *_3
 221 0064 5A1E     		subs	r2, r3, #1	@ tmp118, D.4521
 222 0066 9341     		sbcs	r3, r3, r2	@ tmp117, D.4521, tmp118
 223 0068 DBB2     		uxtb	r3, r3	@ D.4522, tmp116
 224 006a 1800     		movs	r0, r3	@, <retval>
 225              		@ sp needed	@
 226 006c 7047     		bx	lr
 227              	.L20:
 228 006e C046     		.align	2
 229              	.L19:
 230 0070 00000000 		.word	BUTTON
 231              		.cfi_endproc
ARM GAS  /tmp/ccONq56c.s 			page 6


 232              	.LFE4:
 233              		.size	check_button, .-check_button
 234              		.align	2
 235              		.global	time_up
 236              		.code	16
 237              		.thumb_func
 238              		.type	time_up, %function
 239              	time_up:
 240              	.LFB5:
  55:code/main.c   **** bool             time_up(void){return  TIMER[2]?true:false;}
 241              		.loc 1 55 0
 242              		.cfi_startproc
 243              		@ args = 0, pretend = 0, frame = 0
 244              		@ frame_needed = 0, uses_anonymous_args = 0
 245              		@ link register save eliminated.
 246              		.loc 1 55 0
 247 0074 044B     		ldr	r3, .L23	@ tmp115,
 248 0076 1B68     		ldr	r3, [r3]	@ D.4523, TIMER
 249 0078 0833     		adds	r3, r3, #8	@ D.4523,
 250 007a 1B68     		ldr	r3, [r3]	@ D.4524, *_3
 251 007c 5A1E     		subs	r2, r3, #1	@ tmp118, D.4524
 252 007e 9341     		sbcs	r3, r3, r2	@ tmp117, D.4524, tmp118
 253 0080 DBB2     		uxtb	r3, r3	@ D.4525, tmp116
 254 0082 1800     		movs	r0, r3	@, <retval>
 255              		@ sp needed	@
 256 0084 7047     		bx	lr
 257              	.L24:
 258 0086 C046     		.align	2
 259              	.L23:
 260 0088 00000000 		.word	TIMER
 261              		.cfi_endproc
 262              	.LFE5:
 263              		.size	time_up, .-time_up
 264              		.align	2
 265              		.global	read_time_short
 266              		.code	16
 267              		.thumb_func
 268              		.type	read_time_short, %function
 269              	read_time_short:
 270              	.LFB6:
  56:code/main.c   **** uint32_t read_time_short(void){return  TIMER[1];}
 271              		.loc 1 56 0
 272              		.cfi_startproc
 273              		@ args = 0, pretend = 0, frame = 0
 274              		@ frame_needed = 0, uses_anonymous_args = 0
 275              		@ link register save eliminated.
 276              		.loc 1 56 0
 277 008c 024B     		ldr	r3, .L27	@ tmp114,
 278 008e 1B68     		ldr	r3, [r3]	@ D.4526, TIMER
 279 0090 0433     		adds	r3, r3, #4	@ D.4526,
 280 0092 1B68     		ldr	r3, [r3]	@ D.4527, *_3
 281 0094 1800     		movs	r0, r3	@, <retval>
 282              		@ sp needed	@
 283 0096 7047     		bx	lr
 284              	.L28:
 285              		.align	2
 286              	.L27:
ARM GAS  /tmp/ccONq56c.s 			page 7


 287 0098 00000000 		.word	TIMER
 288              		.cfi_endproc
 289              	.LFE6:
 290              		.size	read_time_short, .-read_time_short
 291              		.align	2
 292              		.global	read_time_long
 293              		.code	16
 294              		.thumb_func
 295              		.type	read_time_long, %function
 296              	read_time_long:
 297              	.LFB7:
  57:code/main.c   **** uint32_t  read_time_long(void){return  TIMER[0];}
 298              		.loc 1 57 0
 299              		.cfi_startproc
 300              		@ args = 0, pretend = 0, frame = 0
 301              		@ frame_needed = 0, uses_anonymous_args = 0
 302              		@ link register save eliminated.
 303              		.loc 1 57 0
 304 009c 024B     		ldr	r3, .L31	@ tmp113,
 305 009e 1B68     		ldr	r3, [r3]	@ D.4528, TIMER
 306 00a0 1B68     		ldr	r3, [r3]	@ D.4529, *_2
 307 00a2 1800     		movs	r0, r3	@, <retval>
 308              		@ sp needed	@
 309 00a4 7047     		bx	lr
 310              	.L32:
 311 00a6 C046     		.align	2
 312              	.L31:
 313 00a8 00000000 		.word	TIMER
 314              		.cfi_endproc
 315              	.LFE7:
 316              		.size	read_time_long, .-read_time_long
 317              		.align	2
 318              		.global	read_crank
 319              		.code	16
 320              		.thumb_func
 321              		.type	read_crank, %function
 322              	read_crank:
 323              	.LFB8:
  58:code/main.c   **** uint32_t      read_crank(void){return SENSOR[1];}
 324              		.loc 1 58 0
 325              		.cfi_startproc
 326              		@ args = 0, pretend = 0, frame = 0
 327              		@ frame_needed = 0, uses_anonymous_args = 0
 328              		@ link register save eliminated.
 329              		.loc 1 58 0
 330 00ac 024B     		ldr	r3, .L35	@ tmp114,
 331 00ae 1B68     		ldr	r3, [r3]	@ D.4530, SENSOR
 332 00b0 0433     		adds	r3, r3, #4	@ D.4530,
 333 00b2 1B68     		ldr	r3, [r3]	@ D.4531, *_3
 334 00b4 1800     		movs	r0, r3	@, <retval>
 335              		@ sp needed	@
 336 00b6 7047     		bx	lr
 337              	.L36:
 338              		.align	2
 339              	.L35:
 340 00b8 00000000 		.word	SENSOR
 341              		.cfi_endproc
ARM GAS  /tmp/ccONq56c.s 			page 8


 342              	.LFE8:
 343              		.size	read_crank, .-read_crank
 344              		.align	2
 345              		.global	read_fork
 346              		.code	16
 347              		.thumb_func
 348              		.type	read_fork, %function
 349              	read_fork:
 350              	.LFB9:
  59:code/main.c   **** uint32_t       read_fork(void){return SENSOR[0];}
 351              		.loc 1 59 0
 352              		.cfi_startproc
 353              		@ args = 0, pretend = 0, frame = 0
 354              		@ frame_needed = 0, uses_anonymous_args = 0
 355              		@ link register save eliminated.
 356              		.loc 1 59 0
 357 00bc 024B     		ldr	r3, .L39	@ tmp113,
 358 00be 1B68     		ldr	r3, [r3]	@ D.4532, SENSOR
 359 00c0 1B68     		ldr	r3, [r3]	@ D.4533, *_2
 360 00c2 1800     		movs	r0, r3	@, <retval>
 361              		@ sp needed	@
 362 00c4 7047     		bx	lr
 363              	.L40:
 364 00c6 C046     		.align	2
 365              	.L39:
 366 00c8 00000000 		.word	SENSOR
 367              		.cfi_endproc
 368              	.LFE9:
 369              		.size	read_fork, .-read_fork
 370              		.align	2
 371              		.global	clear_fork
 372              		.code	16
 373              		.thumb_func
 374              		.type	clear_fork, %function
 375              	clear_fork:
 376              	.LFB10:
  60:code/main.c   **** void          clear_fork(void){SENSOR[0] = 0; return;}
 377              		.loc 1 60 0
 378              		.cfi_startproc
 379              		@ args = 0, pretend = 0, frame = 0
 380              		@ frame_needed = 0, uses_anonymous_args = 0
 381              		@ link register save eliminated.
 382              		.loc 1 60 0
 383 00cc 024B     		ldr	r3, .L43	@ tmp111,
 384 00ce 1B68     		ldr	r3, [r3]	@ D.4534, SENSOR
 385 00d0 0022     		movs	r2, #0	@ tmp112,
 386 00d2 1A60     		str	r2, [r3]	@ tmp112, *_2
 387 00d4 C046     		nop
 388              		@ sp needed	@
 389 00d6 7047     		bx	lr
 390              	.L44:
 391              		.align	2
 392              	.L43:
 393 00d8 00000000 		.word	SENSOR
 394              		.cfi_endproc
 395              	.LFE10:
 396              		.size	clear_fork, .-clear_fork
ARM GAS  /tmp/ccONq56c.s 			page 9


 397              		.align	2
 398              		.global	clear_timer_long
 399              		.code	16
 400              		.thumb_func
 401              		.type	clear_timer_long, %function
 402              	clear_timer_long:
 403              	.LFB11:
  61:code/main.c   **** void    clear_timer_long(void){TIMER[0] = 0; return;}
 404              		.loc 1 61 0
 405              		.cfi_startproc
 406              		@ args = 0, pretend = 0, frame = 0
 407              		@ frame_needed = 0, uses_anonymous_args = 0
 408              		@ link register save eliminated.
 409              		.loc 1 61 0
 410 00dc 024B     		ldr	r3, .L47	@ tmp111,
 411 00de 1B68     		ldr	r3, [r3]	@ D.4535, TIMER
 412 00e0 0022     		movs	r2, #0	@ tmp112,
 413 00e2 1A60     		str	r2, [r3]	@ tmp112, *_2
 414 00e4 C046     		nop
 415              		@ sp needed	@
 416 00e6 7047     		bx	lr
 417              	.L48:
 418              		.align	2
 419              	.L47:
 420 00e8 00000000 		.word	TIMER
 421              		.cfi_endproc
 422              	.LFE11:
 423              		.size	clear_timer_long, .-clear_timer_long
 424              		.align	2
 425              		.global	display_segment
 426              		.code	16
 427              		.thumb_func
 428              		.type	display_segment, %function
 429              	display_segment:
 430              	.LFB12:
  62:code/main.c   **** void     display_segment(uint32_t Mode, uint32_t Integer, uint32_t Fraction){SEGMENT[0] = Fraction;
 431              		.loc 1 62 0
 432              		.cfi_startproc
 433              		@ args = 0, pretend = 0, frame = 16
 434              		@ frame_needed = 0, uses_anonymous_args = 0
 435              		@ link register save eliminated.
 436 00ec 84B0     		sub	sp, sp, #16	@,,
 437              	.LCFI0:
 438              		.cfi_def_cfa_offset 16
 439 00ee 0390     		str	r0, [sp, #12]	@ Mode, Mode
 440 00f0 0291     		str	r1, [sp, #8]	@ Integer, Integer
 441 00f2 0192     		str	r2, [sp, #4]	@ Fraction, Fraction
 442              		.loc 1 62 0
 443 00f4 084B     		ldr	r3, .L51	@ tmp115,
 444 00f6 1B68     		ldr	r3, [r3]	@ D.4536, SEGMENT
 445 00f8 019A     		ldr	r2, [sp, #4]	@ tmp116, Fraction
 446 00fa 1A60     		str	r2, [r3]	@ tmp116, *_2
 447 00fc 064B     		ldr	r3, .L51	@ tmp117,
 448 00fe 1B68     		ldr	r3, [r3]	@ D.4536, SEGMENT
 449 0100 0433     		adds	r3, r3, #4	@ D.4536,
 450 0102 029A     		ldr	r2, [sp, #8]	@ tmp118, Integer
 451 0104 1A60     		str	r2, [r3]	@ tmp118, *_6
ARM GAS  /tmp/ccONq56c.s 			page 10


 452 0106 044B     		ldr	r3, .L51	@ tmp119,
 453 0108 1B68     		ldr	r3, [r3]	@ D.4536, SEGMENT
 454 010a 0833     		adds	r3, r3, #8	@ D.4536,
 455 010c 039A     		ldr	r2, [sp, #12]	@ tmp120, Mode
 456 010e 1A60     		str	r2, [r3]	@ tmp120, *_10
 457 0110 C046     		nop
 458 0112 04B0     		add	sp, sp, #16	@,,
 459              		@ sp needed	@
 460 0114 7047     		bx	lr
 461              	.L52:
 462 0116 C046     		.align	2
 463              	.L51:
 464 0118 00000000 		.word	SEGMENT
 465              		.cfi_endproc
 466              	.LFE12:
 467              		.size	display_segment, .-display_segment
 468              		.global	__aeabi_uidivmod
 469              		.global	__aeabi_uidiv
 470              		.align	2
 471              		.global	int2bcd
 472              		.code	16
 473              		.thumb_func
 474              		.type	int2bcd, %function
 475              	int2bcd:
 476              	.LFB13:
  63:code/main.c   **** 
  64:code/main.c   **** //------------------------------------------------------------------------------
  65:code/main.c   **** // Compound Functions
  66:code/main.c   **** //------------------------------------------------------------------------------
  67:code/main.c   **** 
  68:code/main.c   **** uint32_t int2bcd(uint32_t value){
 477              		.loc 1 68 0
 478              		.cfi_startproc
 479              		@ args = 0, pretend = 0, frame = 16
 480              		@ frame_needed = 0, uses_anonymous_args = 0
 481 011c 00B5     		push	{lr}	@
 482              	.LCFI1:
 483              		.cfi_def_cfa_offset 4
 484              		.cfi_offset 14, -4
 485 011e 85B0     		sub	sp, sp, #20	@,,
 486              	.LCFI2:
 487              		.cfi_def_cfa_offset 24
 488 0120 0190     		str	r0, [sp, #4]	@ value, value
  69:code/main.c   ****     uint32_t bcd = 0, shift = 0;
 489              		.loc 1 69 0
 490 0122 0023     		movs	r3, #0	@ tmp114,
 491 0124 0393     		str	r3, [sp, #12]	@ tmp114, bcd
 492 0126 0023     		movs	r3, #0	@ tmp115,
 493 0128 0293     		str	r3, [sp, #8]	@ tmp115, shift
  70:code/main.c   ****     while (value != 0) {
 494              		.loc 1 70 0
 495 012a 16E0     		b	.L54	@
 496              	.L55:
  71:code/main.c   ****       bcd = bcd | ((value % 10) << shift);
 497              		.loc 1 71 0
 498 012c 019B     		ldr	r3, [sp, #4]	@ tmp116, value
 499 012e 0A21     		movs	r1, #10	@,
ARM GAS  /tmp/ccONq56c.s 			page 11


 500 0130 1800     		movs	r0, r3	@, tmp116
 501 0132 FFF7FEFF 		bl	__aeabi_uidivmod	@
 502 0136 0B00     		movs	r3, r1	@ tmp121,
 503 0138 1A00     		movs	r2, r3	@ D.4537, tmp121
 504 013a 029B     		ldr	r3, [sp, #8]	@ tmp122, shift
 505 013c 9A40     		lsls	r2, r2, r3	@ D.4537, D.4537, tmp122
 506 013e 1300     		movs	r3, r2	@ D.4537, D.4537
 507 0140 039A     		ldr	r2, [sp, #12]	@ tmp124, bcd
 508 0142 1343     		orrs	r3, r2	@ tmp123, tmp124
 509 0144 0393     		str	r3, [sp, #12]	@ tmp123, bcd
  72:code/main.c   ****       value = value / 10;
 510              		.loc 1 72 0
 511 0146 019B     		ldr	r3, [sp, #4]	@ tmp126, value
 512 0148 0A21     		movs	r1, #10	@,
 513 014a 1800     		movs	r0, r3	@, tmp126
 514 014c FFF7FEFF 		bl	__aeabi_uidiv	@
 515 0150 0300     		movs	r3, r0	@ tmp129,
 516 0152 0193     		str	r3, [sp, #4]	@ tmp129, value
  73:code/main.c   ****       shift = shift + 4;
 517              		.loc 1 73 0
 518 0154 029B     		ldr	r3, [sp, #8]	@ tmp131, shift
 519 0156 0433     		adds	r3, r3, #4	@ tmp130,
 520 0158 0293     		str	r3, [sp, #8]	@ tmp130, shift
 521              	.L54:
  70:code/main.c   ****       bcd = bcd | ((value % 10) << shift);
 522              		.loc 1 70 0
 523 015a 019B     		ldr	r3, [sp, #4]	@ tmp132, value
 524 015c 002B     		cmp	r3, #0	@ tmp132,
 525 015e E5D1     		bne	.L55	@,
  74:code/main.c   ****     }
  75:code/main.c   ****     return bcd;
 526              		.loc 1 75 0
 527 0160 039B     		ldr	r3, [sp, #12]	@ D.4538, bcd
  76:code/main.c   **** }
 528              		.loc 1 76 0
 529 0162 1800     		movs	r0, r3	@, <retval>
 530 0164 05B0     		add	sp, sp, #20	@,,
 531              		@ sp needed	@
 532 0166 00BD     		pop	{pc}
 533              		.cfi_endproc
 534              	.LFE13:
 535              		.size	int2bcd, .-int2bcd
 536              		.align	2
 537              		.global	wait_for_press
 538              		.code	16
 539              		.thumb_func
 540              		.type	wait_for_press, %function
 541              	wait_for_press:
 542              	.LFB14:
  77:code/main.c   **** 
  78:code/main.c   **** bool wait_for_press(void){
 543              		.loc 1 78 0
 544              		.cfi_startproc
 545              		@ args = 0, pretend = 0, frame = 0
 546              		@ frame_needed = 0, uses_anonymous_args = 0
 547 0168 10B5     		push	{r4, lr}	@
 548              	.LCFI3:
ARM GAS  /tmp/ccONq56c.s 			page 12


 549              		.cfi_def_cfa_offset 8
 550              		.cfi_offset 4, -8
 551              		.cfi_offset 14, -4
 552              	.L61:
  79:code/main.c   ****   while(1)
  80:code/main.c   ****     if (check_button())
 553              		.loc 1 80 0
 554 016a FFF7FEFF 		bl	check_button	@
 555 016e 031E     		subs	r3, r0, #0	@ tmp114,,
 556 0170 01D0     		beq	.L58	@,
  81:code/main.c   ****       return true;
 557              		.loc 1 81 0
 558 0172 0123     		movs	r3, #1	@ D.4539,
 559 0174 04E0     		b	.L59	@
 560              	.L58:
  82:code/main.c   ****     else if (time_up())
 561              		.loc 1 82 0
 562 0176 FFF7FEFF 		bl	time_up	@
 563 017a 031E     		subs	r3, r0, #0	@ tmp116,,
 564 017c F5D0     		beq	.L61	@,
  83:code/main.c   ****       return false;
 565              		.loc 1 83 0
 566 017e 0023     		movs	r3, #0	@ D.4539,
 567              	.L59:
  84:code/main.c   **** }
 568              		.loc 1 84 0
 569 0180 1800     		movs	r0, r3	@, <retval>
 570              		@ sp needed	@
 571 0182 10BD     		pop	{r4, pc}
 572              		.cfi_endproc
 573              	.LFE14:
 574              		.size	wait_for_press, .-wait_for_press
 575              		.global	__aeabi_idivmod
 576              		.align	2
 577              		.global	wait_for_wheel_girth
 578              		.code	16
 579              		.thumb_func
 580              		.type	wait_for_wheel_girth, %function
 581              	wait_for_wheel_girth:
 582              	.LFB15:
  85:code/main.c   **** 
  86:code/main.c   **** uint32_t wait_for_wheel_girth(uint32_t wheel_girth) {
 583              		.loc 1 86 0
 584              		.cfi_startproc
 585              		@ args = 0, pretend = 0, frame = 24
 586              		@ frame_needed = 0, uses_anonymous_args = 0
 587 0184 00B5     		push	{lr}	@
 588              	.LCFI4:
 589              		.cfi_def_cfa_offset 4
 590              		.cfi_offset 14, -4
 591 0186 87B0     		sub	sp, sp, #28	@,,
 592              	.LCFI5:
 593              		.cfi_def_cfa_offset 32
 594 0188 0190     		str	r0, [sp, #4]	@ wheel_girth, wheel_girth
  87:code/main.c   ****   int press_times = 0;
 595              		.loc 1 87 0
 596 018a 0023     		movs	r3, #0	@ tmp132,
ARM GAS  /tmp/ccONq56c.s 			page 13


 597 018c 0593     		str	r3, [sp, #20]	@ tmp132, press_times
  88:code/main.c   ****   int wheel_3 = wheel_girth / 100 % 10;
 598              		.loc 1 88 0
 599 018e 019B     		ldr	r3, [sp, #4]	@ tmp133, wheel_girth
 600 0190 6421     		movs	r1, #100	@,
 601 0192 1800     		movs	r0, r3	@, tmp133
 602 0194 FFF7FEFF 		bl	__aeabi_uidiv	@
 603 0198 0300     		movs	r3, r0	@ tmp136,
 604 019a 0A21     		movs	r1, #10	@,
 605 019c 1800     		movs	r0, r3	@, D.4540
 606 019e FFF7FEFF 		bl	__aeabi_uidivmod	@
 607 01a2 0B00     		movs	r3, r1	@ tmp141,
 608 01a4 0493     		str	r3, [sp, #16]	@ D.4540, wheel_3
  89:code/main.c   ****   int wheel_2 = wheel_girth / 10 % 10;
 609              		.loc 1 89 0
 610 01a6 019B     		ldr	r3, [sp, #4]	@ tmp142, wheel_girth
 611 01a8 0A21     		movs	r1, #10	@,
 612 01aa 1800     		movs	r0, r3	@, tmp142
 613 01ac FFF7FEFF 		bl	__aeabi_uidiv	@
 614 01b0 0300     		movs	r3, r0	@ tmp145,
 615 01b2 0A21     		movs	r1, #10	@,
 616 01b4 1800     		movs	r0, r3	@, D.4540
 617 01b6 FFF7FEFF 		bl	__aeabi_uidivmod	@
 618 01ba 0B00     		movs	r3, r1	@ tmp150,
 619 01bc 0393     		str	r3, [sp, #12]	@ D.4540, wheel_2
  90:code/main.c   ****   int wheel_1 = wheel_girth % 10;
 620              		.loc 1 90 0
 621 01be 019B     		ldr	r3, [sp, #4]	@ tmp151, wheel_girth
 622 01c0 0A21     		movs	r1, #10	@,
 623 01c2 1800     		movs	r0, r3	@, tmp151
 624 01c4 FFF7FEFF 		bl	__aeabi_uidivmod	@
 625 01c8 0B00     		movs	r3, r1	@ tmp156,
 626 01ca 0293     		str	r3, [sp, #8]	@ D.4540, wheel_1
  91:code/main.c   ****   display_segment(0xE, int2bcd(wheel_girth % 1000), 0);
 627              		.loc 1 91 0
 628 01cc 019A     		ldr	r2, [sp, #4]	@ tmp157, wheel_girth
 629 01ce FA23     		movs	r3, #250	@ tmp207,
 630 01d0 9900     		lsls	r1, r3, #2	@, tmp207,
 631 01d2 1000     		movs	r0, r2	@, tmp157
 632 01d4 FFF7FEFF 		bl	__aeabi_uidivmod	@
 633 01d8 0B00     		movs	r3, r1	@ tmp162,
 634 01da 1800     		movs	r0, r3	@, D.4540
 635 01dc FFF7FEFF 		bl	int2bcd	@
 636 01e0 0300     		movs	r3, r0	@ D.4540,
 637 01e2 0022     		movs	r2, #0	@,
 638 01e4 1900     		movs	r1, r3	@, D.4540
 639 01e6 0E20     		movs	r0, #14	@,
 640 01e8 FFF7FEFF 		bl	display_segment	@
 641              	.L69:
  92:code/main.c   ****   while (1){
  93:code/main.c   ****     if (check_button()) {
 642              		.loc 1 93 0
 643 01ec FFF7FEFF 		bl	check_button	@
 644 01f0 031E     		subs	r3, r0, #0	@ tmp163,,
 645 01f2 FBD0     		beq	.L69	@,
  94:code/main.c   ****       if (press_mode()) {
 646              		.loc 1 94 0
ARM GAS  /tmp/ccONq56c.s 			page 14


 647 01f4 FFF7FEFF 		bl	press_mode	@
 648 01f8 031E     		subs	r3, r0, #0	@ tmp165,,
 649 01fa 07D0     		beq	.L64	@,
  95:code/main.c   ****         press_times ++;
 650              		.loc 1 95 0
 651 01fc 059B     		ldr	r3, [sp, #20]	@ tmp168, press_times
 652 01fe 0133     		adds	r3, r3, #1	@ tmp167,
 653 0200 0593     		str	r3, [sp, #20]	@ tmp167, press_times
  96:code/main.c   ****         if (press_times == 3)
 654              		.loc 1 96 0
 655 0202 059B     		ldr	r3, [sp, #20]	@ tmp169, press_times
 656 0204 032B     		cmp	r3, #3	@ tmp169,
 657 0206 F1D1     		bne	.L69	@,
  97:code/main.c   ****           return wheel_girth;
 658              		.loc 1 97 0
 659 0208 019B     		ldr	r3, [sp, #4]	@ D.4543, wheel_girth
 660 020a 46E0     		b	.L70	@
 661              	.L64:
  98:code/main.c   ****       }
  99:code/main.c   ****       else if(press_trip()) {
 662              		.loc 1 99 0
 663 020c FFF7FEFF 		bl	press_trip	@
 664 0210 031E     		subs	r3, r0, #0	@ tmp170,,
 665 0212 EBD0     		beq	.L69	@,
 100:code/main.c   ****         if (press_times == 0)
 666              		.loc 1 100 0
 667 0214 059B     		ldr	r3, [sp, #20]	@ tmp172, press_times
 668 0216 002B     		cmp	r3, #0	@ tmp172,
 669 0218 08D1     		bne	.L66	@,
 101:code/main.c   ****           wheel_3 = (wheel_3 + 1) % 10;
 670              		.loc 1 101 0
 671 021a 049B     		ldr	r3, [sp, #16]	@ tmp173, wheel_3
 672 021c 0133     		adds	r3, r3, #1	@ D.4542,
 673 021e 0A21     		movs	r1, #10	@,
 674 0220 1800     		movs	r0, r3	@, D.4542
 675 0222 FFF7FEFF 		bl	__aeabi_idivmod	@
 676 0226 0B00     		movs	r3, r1	@ tmp178,
 677 0228 0493     		str	r3, [sp, #16]	@ tmp178, wheel_3
 678 022a 16E0     		b	.L67	@
 679              	.L66:
 102:code/main.c   ****         else if (press_times == 1)
 680              		.loc 1 102 0
 681 022c 059B     		ldr	r3, [sp, #20]	@ tmp179, press_times
 682 022e 012B     		cmp	r3, #1	@ tmp179,
 683 0230 08D1     		bne	.L68	@,
 103:code/main.c   ****           wheel_2 = (wheel_2 + 1) % 10;
 684              		.loc 1 103 0
 685 0232 039B     		ldr	r3, [sp, #12]	@ tmp180, wheel_2
 686 0234 0133     		adds	r3, r3, #1	@ D.4542,
 687 0236 0A21     		movs	r1, #10	@,
 688 0238 1800     		movs	r0, r3	@, D.4542
 689 023a FFF7FEFF 		bl	__aeabi_idivmod	@
 690 023e 0B00     		movs	r3, r1	@ tmp185,
 691 0240 0393     		str	r3, [sp, #12]	@ tmp185, wheel_2
 692 0242 0AE0     		b	.L67	@
 693              	.L68:
 104:code/main.c   ****         else if (press_times == 2)
ARM GAS  /tmp/ccONq56c.s 			page 15


 694              		.loc 1 104 0
 695 0244 059B     		ldr	r3, [sp, #20]	@ tmp186, press_times
 696 0246 022B     		cmp	r3, #2	@ tmp186,
 697 0248 07D1     		bne	.L67	@,
 105:code/main.c   ****           wheel_1 = (wheel_1 + 1) % 10;
 698              		.loc 1 105 0
 699 024a 029B     		ldr	r3, [sp, #8]	@ tmp187, wheel_1
 700 024c 0133     		adds	r3, r3, #1	@ D.4542,
 701 024e 0A21     		movs	r1, #10	@,
 702 0250 1800     		movs	r0, r3	@, D.4542
 703 0252 FFF7FEFF 		bl	__aeabi_idivmod	@
 704 0256 0B00     		movs	r3, r1	@ tmp192,
 705 0258 0293     		str	r3, [sp, #8]	@ tmp192, wheel_1
 706              	.L67:
 106:code/main.c   ****         wheel_girth = 2000 + wheel_3 * 100 + wheel_2 * 10 + wheel_1;
 707              		.loc 1 106 0
 708 025a 049B     		ldr	r3, [sp, #16]	@ tmp193, wheel_3
 709 025c 6422     		movs	r2, #100	@ tmp194,
 710 025e 5343     		muls	r3, r2	@ D.4542, tmp194
 711 0260 FA22     		movs	r2, #250	@ tmp208,
 712 0262 D200     		lsls	r2, r2, #3	@ tmp208, tmp208,
 713 0264 9918     		adds	r1, r3, r2	@ D.4542, D.4542, tmp208
 714 0266 039A     		ldr	r2, [sp, #12]	@ tmp195, wheel_2
 715 0268 1300     		movs	r3, r2	@ tmp196, tmp195
 716 026a 9B00     		lsls	r3, r3, #2	@ tmp196, tmp196,
 717 026c 9B18     		adds	r3, r3, r2	@ tmp196, tmp196, tmp195
 718 026e 5B00     		lsls	r3, r3, #1	@ tmp197, tmp196,
 719 0270 CA18     		adds	r2, r1, r3	@ D.4542, D.4542, D.4542
 720 0272 029B     		ldr	r3, [sp, #8]	@ tmp198, wheel_1
 721 0274 D318     		adds	r3, r2, r3	@ D.4542, D.4542, tmp198
 722 0276 0193     		str	r3, [sp, #4]	@ D.4542, wheel_girth
 107:code/main.c   ****         display_segment(0xE, int2bcd(wheel_girth % 1000), 0);
 723              		.loc 1 107 0
 724 0278 019A     		ldr	r2, [sp, #4]	@ tmp199, wheel_girth
 725 027a FA23     		movs	r3, #250	@ tmp206,
 726 027c 9900     		lsls	r1, r3, #2	@, tmp206,
 727 027e 1000     		movs	r0, r2	@, tmp199
 728 0280 FFF7FEFF 		bl	__aeabi_uidivmod	@
 729 0284 0B00     		movs	r3, r1	@ tmp204,
 730 0286 1800     		movs	r0, r3	@, D.4540
 731 0288 FFF7FEFF 		bl	int2bcd	@
 732 028c 0300     		movs	r3, r0	@ D.4540,
 733 028e 0022     		movs	r2, #0	@,
 734 0290 1900     		movs	r1, r3	@, D.4540
 735 0292 0E20     		movs	r0, #14	@,
 736 0294 FFF7FEFF 		bl	display_segment	@
 108:code/main.c   ****         // get_setting_image();
 109:code/main.c   ****         // display_oled();
 110:code/main.c   ****       }
 111:code/main.c   ****     }
 112:code/main.c   ****   }  
 737              		.loc 1 112 0
 738 0298 A8E7     		b	.L69	@
 739              	.L70:
 113:code/main.c   **** }
 740              		.loc 1 113 0 discriminator 1
 741 029a 1800     		movs	r0, r3	@, <retval>
ARM GAS  /tmp/ccONq56c.s 			page 16


 742 029c 07B0     		add	sp, sp, #28	@,,
 743              		@ sp needed	@
 744 029e 00BD     		pop	{pc}
 745              		.cfi_endproc
 746              	.LFE15:
 747              		.size	wait_for_wheel_girth, .-wait_for_wheel_girth
 748              		.global	__aeabi_ui2f
 749              		.global	__aeabi_fdiv
 750              		.global	__aeabi_f2d
 751              		.global	__aeabi_dadd
 752              		.global	__aeabi_d2f
 753              		.global	__aeabi_dcmpgt
 754              		.global	__aeabi_fsub
 755              		.global	__aeabi_fcmpeq
 756              		.global	__aeabi_fmul
 757              		.global	__aeabi_f2uiz
 758              		.global	__aeabi_fadd
 759              		.global	__aeabi_fcmpgt
 760              		.align	2
 761              		.global	main
 762              		.code	16
 763              		.thumb_func
 764              		.type	main, %function
 765              	main:
 766              	.LFB16:
 114:code/main.c   **** 
 115:code/main.c   **** //------------------------------------------------------------------------------
 116:code/main.c   **** // Main Function
 117:code/main.c   **** //------------------------------------------------------------------------------
 118:code/main.c   **** 
 119:code/main.c   **** int main(void) {
 767              		.loc 1 119 0
 768              		.cfi_startproc
 769              		@ args = 0, pretend = 0, frame = 80
 770              		@ frame_needed = 0, uses_anonymous_args = 0
 771 02a0 10B5     		push	{r4, lr}	@
 772              	.LCFI6:
 773              		.cfi_def_cfa_offset 8
 774              		.cfi_offset 4, -8
 775              		.cfi_offset 14, -4
 776 02a2 94B0     		sub	sp, sp, #80	@,,
 777              	.LCFI7:
 778              		.cfi_def_cfa_offset 88
 120:code/main.c   **** 
 121:code/main.c   ****   // variables
 122:code/main.c   ****   bool is_night;
 123:code/main.c   ****   uint32_t mode, wheel_girth;
 124:code/main.c   ****   uint32_t 
 125:code/main.c   ****     present_time, last_time, 
 126:code/main.c   ****     delta_crank, long_delta_crank,
 127:code/main.c   ****     present_fork, 
 128:code/main.c   ****     present_cadence;
 129:code/main.c   ****   float 
 130:code/main.c   ****     delta_distance, present_distance, last_distance, 
 131:code/main.c   ****     delta_time, long_delta_time,
 132:code/main.c   ****     present_speed, last_speed_1, last_speed_2;
 133:code/main.c   **** 
ARM GAS  /tmp/ccONq56c.s 			page 17


 134:code/main.c   ****   // initiate
 135:code/main.c   ****   wheel_girth = 2136; // setting
 779              		.loc 1 135 0
 780 02a4 C64B     		ldr	r3, .L99	@ tmp148,
 781 02a6 1193     		str	r3, [sp, #68]	@ tmp148, wheel_girth
 136:code/main.c   ****   is_night = false;
 782              		.loc 1 136 0
 783 02a8 4F23     		movs	r3, #79	@ tmp149,
 784 02aa 6B44     		add	r3, r3, sp	@ tmp149,
 785 02ac 0022     		movs	r2, #0	@ tmp150,
 786 02ae 1A70     		strb	r2, [r3]	@ tmp151, is_night
 137:code/main.c   ****   long_delta_time = 0;
 787              		.loc 1 137 0
 788 02b0 0023     		movs	r3, #0	@ tmp152,
 789 02b2 0A93     		str	r3, [sp, #40]	@ tmp152, long_delta_time
 138:code/main.c   ****   long_delta_crank = 0;
 790              		.loc 1 138 0
 791 02b4 0023     		movs	r3, #0	@ tmp153,
 792 02b6 0E93     		str	r3, [sp, #56]	@ tmp153, long_delta_crank
 139:code/main.c   ****   last_distance = 0;
 793              		.loc 1 139 0
 794 02b8 0023     		movs	r3, #0	@ tmp154,
 795 02ba 0B93     		str	r3, [sp, #44]	@ tmp154, last_distance
 140:code/main.c   ****   last_time = 0;
 796              		.loc 1 140 0
 797 02bc 0023     		movs	r3, #0	@ tmp155,
 798 02be 0F93     		str	r3, [sp, #60]	@ tmp155, last_time
 141:code/main.c   ****   last_speed_1 = 0;
 799              		.loc 1 141 0
 800 02c0 0023     		movs	r3, #0	@ tmp156,
 801 02c2 0893     		str	r3, [sp, #32]	@ tmp156, last_speed_1
 142:code/main.c   ****   last_speed_2 = 0;
 802              		.loc 1 142 0
 803 02c4 0023     		movs	r3, #0	@ tmp157,
 804 02c6 0793     		str	r3, [sp, #28]	@ tmp157, last_speed_2
 143:code/main.c   ****   present_cadence = 0;
 805              		.loc 1 143 0
 806 02c8 0023     		movs	r3, #0	@ tmp158,
 807 02ca 0D93     		str	r3, [sp, #52]	@ tmp158, present_cadence
 144:code/main.c   ****   mode = 0xA;
 808              		.loc 1 144 0
 809 02cc 0A23     		movs	r3, #10	@ tmp159,
 810 02ce 1293     		str	r3, [sp, #72]	@ tmp159, mode
 145:code/main.c   ****   display_segment(mode, 0, 0);
 811              		.loc 1 145 0
 812 02d0 129B     		ldr	r3, [sp, #72]	@ tmp160, mode
 813 02d2 0022     		movs	r2, #0	@,
 814 02d4 0021     		movs	r1, #0	@,
 815 02d6 1800     		movs	r0, r3	@, tmp160
 816 02d8 FFF7FEFF 		bl	display_segment	@
 817              	.L94:
 818              	.LBB2:
 146:code/main.c   ****   // display_oled();
 147:code/main.c   **** 
 148:code/main.c   ****   // process start
 149:code/main.c   ****   while(1) {
 150:code/main.c   **** 
ARM GAS  /tmp/ccONq56c.s 			page 18


 151:code/main.c   ****     // I. Button interrupted 3 seconds wait
 152:code/main.c   **** 
 153:code/main.c   ****     if (wait_for_press()){
 819              		.loc 1 153 0
 820 02dc FFF7FEFF 		bl	wait_for_press	@
 821 02e0 031E     		subs	r3, r0, #0	@ tmp161,,
 822 02e2 2ED0     		beq	.L72	@,
 154:code/main.c   ****       if (setting())
 823              		.loc 1 154 0
 824 02e4 FFF7FEFF 		bl	setting	@
 825 02e8 031E     		subs	r3, r0, #0	@ tmp163,,
 826 02ea 06D0     		beq	.L73	@,
 155:code/main.c   ****         wheel_girth = wait_for_wheel_girth(wheel_girth);
 827              		.loc 1 155 0
 828 02ec 119B     		ldr	r3, [sp, #68]	@ tmp165, wheel_girth
 829 02ee 1800     		movs	r0, r3	@, tmp165
 830 02f0 FFF7FEFF 		bl	wait_for_wheel_girth	@
 831 02f4 0300     		movs	r3, r0	@ tmp166,
 832 02f6 1193     		str	r3, [sp, #68]	@ tmp166, wheel_girth
 833 02f8 23E0     		b	.L72	@
 834              	.L73:
 156:code/main.c   ****       else {
 157:code/main.c   ****         if (press_trip()) { // Don't clear short here, it's not necessary and may cause a divide-ze
 835              		.loc 1 157 0
 836 02fa FFF7FEFF 		bl	press_trip	@
 837 02fe 031E     		subs	r3, r0, #0	@ tmp167,,
 838 0300 04D0     		beq	.L74	@,
 158:code/main.c   ****           clear_fork();
 839              		.loc 1 158 0
 840 0302 FFF7FEFF 		bl	clear_fork	@
 159:code/main.c   ****           clear_timer_long(); 
 841              		.loc 1 159 0
 842 0306 FFF7FEFF 		bl	clear_timer_long	@
 843 030a 1AE0     		b	.L72	@
 844              	.L74:
 160:code/main.c   ****         } 
 161:code/main.c   ****         else if (press_mode()) // A: Odometer  B: Duration  C: Speed  D: Cadence  E: Setting
 845              		.loc 1 161 0
 846 030c FFF7FEFF 		bl	press_mode	@
 847 0310 031E     		subs	r3, r0, #0	@ tmp169,,
 848 0312 09D0     		beq	.L75	@,
 162:code/main.c   ****           if (mode >= 0xD)
 849              		.loc 1 162 0
 850 0314 129B     		ldr	r3, [sp, #72]	@ tmp171, mode
 851 0316 0C2B     		cmp	r3, #12	@ tmp171,
 852 0318 02D9     		bls	.L76	@,
 163:code/main.c   ****             mode = 0xA;
 853              		.loc 1 163 0
 854 031a 0A23     		movs	r3, #10	@ tmp172,
 855 031c 1293     		str	r3, [sp, #72]	@ tmp172, mode
 856 031e 10E0     		b	.L72	@
 857              	.L76:
 164:code/main.c   ****           else
 165:code/main.c   ****             mode ++; // Furture Design: switchDisplay will be judged by mode，removed.
 858              		.loc 1 165 0
 859 0320 129B     		ldr	r3, [sp, #72]	@ tmp174, mode
 860 0322 0133     		adds	r3, r3, #1	@ tmp173,
ARM GAS  /tmp/ccONq56c.s 			page 19


 861 0324 1293     		str	r3, [sp, #72]	@ tmp173, mode
 862 0326 0CE0     		b	.L72	@
 863              	.L75:
 166:code/main.c   ****         else if (press_d_mode())
 864              		.loc 1 166 0
 865 0328 FFF7FEFF 		bl	press_d_mode	@
 866 032c 031E     		subs	r3, r0, #0	@ tmp175,,
 867 032e 08D0     		beq	.L72	@,
 167:code/main.c   ****           is_night = ~ is_night;
 868              		.loc 1 167 0
 869 0330 4F23     		movs	r3, #79	@ tmp177,
 870 0332 6B44     		add	r3, r3, sp	@ tmp177,
 871 0334 1B78     		ldrb	r3, [r3]	@ D.4545, is_night
 872 0336 DA43     		mvns	r2, r3	@ D.4545, D.4545
 873 0338 4F23     		movs	r3, #79	@ tmp178,
 874 033a 6B44     		add	r3, r3, sp	@ tmp178,
 875 033c 511E     		subs	r1, r2, #1	@ tmp180, D.4545
 876 033e 8A41     		sbcs	r2, r2, r1	@ tmp179, D.4545, tmp180
 877 0340 1A70     		strb	r2, [r3]	@ tmp181, is_night
 878              	.L72:
 168:code/main.c   ****       }
 169:code/main.c   ****     }
 170:code/main.c   **** 
 171:code/main.c   ****     // II. Refresh Time, Speed, Distance, Cadence.
 172:code/main.c   ****     
 173:code/main.c   ****     // 1. Time Stamp Data Read
 174:code/main.c   **** 
 175:code/main.c   ****     delta_crank  = read_crank();
 879              		.loc 1 175 0
 880 0342 FFF7FEFF 		bl	read_crank	@
 881 0346 0300     		movs	r3, r0	@ tmp182,
 882 0348 0393     		str	r3, [sp, #12]	@ tmp182, delta_crank
 176:code/main.c   ****     present_time = read_time_long();
 883              		.loc 1 176 0
 884 034a FFF7FEFF 		bl	read_time_long	@
 885 034e 0300     		movs	r3, r0	@ tmp183,
 886 0350 1093     		str	r3, [sp, #64]	@ tmp183, present_time
 177:code/main.c   ****     present_fork = read_fork();
 887              		.loc 1 177 0
 888 0352 FFF7FEFF 		bl	read_fork	@
 889 0356 0300     		movs	r3, r0	@ tmp184,
 890 0358 0293     		str	r3, [sp, #8]	@ tmp184, present_fork
 178:code/main.c   ****     delta_time   = ((float)read_time_short()) / 1000;
 891              		.loc 1 178 0
 892 035a FFF7FEFF 		bl	read_time_short	@
 893 035e 0300     		movs	r3, r0	@ D.4546,
 894 0360 1800     		movs	r0, r3	@, D.4546
 895 0362 FFF7FEFF 		bl	__aeabi_ui2f	@
 896 0366 031C     		adds	r3, r0, #0	@ D.4547,
 897 0368 9649     		ldr	r1, .L99+4	@,
 898 036a 181C     		adds	r0, r3, #0	@, D.4547
 899 036c FFF7FEFF 		bl	__aeabi_fdiv	@
 900 0370 031C     		adds	r3, r0, #0	@ tmp185,
 901 0372 0193     		str	r3, [sp, #4]	@ tmp185, delta_time
 179:code/main.c   **** 
 180:code/main.c   ****     // 2. Calculate
 181:code/main.c   **** 
ARM GAS  /tmp/ccONq56c.s 			page 20


 182:code/main.c   ****     // Get present distance (unit: km)
 183:code/main.c   ****     present_distance = (float)(present_fork * wheel_girth) / 1000000 + 0.01; // Number 0.01 is a bi
 902              		.loc 1 183 0
 903 0374 029B     		ldr	r3, [sp, #8]	@ tmp186, present_fork
 904 0376 119A     		ldr	r2, [sp, #68]	@ tmp187, wheel_girth
 905 0378 5343     		muls	r3, r2	@ D.4546, tmp187
 906 037a 1800     		movs	r0, r3	@, D.4546
 907 037c FFF7FEFF 		bl	__aeabi_ui2f	@
 908 0380 031C     		adds	r3, r0, #0	@ D.4547,
 909 0382 9149     		ldr	r1, .L99+8	@,
 910 0384 181C     		adds	r0, r3, #0	@, D.4547
 911 0386 FFF7FEFF 		bl	__aeabi_fdiv	@
 912 038a 031C     		adds	r3, r0, #0	@ tmp188,
 913 038c 181C     		adds	r0, r3, #0	@, D.4547
 914 038e FFF7FEFF 		bl	__aeabi_f2d	@
 915 0392 8E4A     		ldr	r2, .L99+12	@,
 916 0394 8E4B     		ldr	r3, .L99+16	@,
 917 0396 FFF7FEFF 		bl	__aeabi_dadd	@
 918 039a 0300     		movs	r3, r0	@ tmp189,
 919 039c 0C00     		movs	r4, r1	@,
 920 039e 1800     		movs	r0, r3	@, D.4548
 921 03a0 2100     		movs	r1, r4	@, D.4548
 922 03a2 FFF7FEFF 		bl	__aeabi_d2f	@
 923 03a6 031C     		adds	r3, r0, #0	@ tmp190,
 924 03a8 0C93     		str	r3, [sp, #48]	@ tmp190, present_distance
 184:code/main.c   ****     if (present_distance > 99.99)
 925              		.loc 1 184 0
 926 03aa 0C98     		ldr	r0, [sp, #48]	@, present_distance
 927 03ac FFF7FEFF 		bl	__aeabi_f2d	@
 928 03b0 884A     		ldr	r2, .L99+20	@,
 929 03b2 894B     		ldr	r3, .L99+24	@,
 930 03b4 FFF7FEFF 		bl	__aeabi_dcmpgt	@
 931 03b8 031E     		subs	r3, r0, #0	@ tmp191,,
 932 03ba 01D0     		beq	.L78	@,
 185:code/main.c   ****       present_distance = 99.99;
 933              		.loc 1 185 0
 934 03bc 874B     		ldr	r3, .L99+28	@ tmp192,
 935 03be 0C93     		str	r3, [sp, #48]	@ tmp192, present_distance
 936              	.L78:
 186:code/main.c   ****     delta_distance = present_distance - last_distance;
 937              		.loc 1 186 0
 938 03c0 0B99     		ldr	r1, [sp, #44]	@, last_distance
 939 03c2 0C98     		ldr	r0, [sp, #48]	@, present_distance
 940 03c4 FFF7FEFF 		bl	__aeabi_fsub	@
 941 03c8 031C     		adds	r3, r0, #0	@ tmp193,
 942 03ca 0093     		str	r3, [sp]	@ tmp193, delta_distance
 187:code/main.c   ****     last_distance = present_distance;
 943              		.loc 1 187 0
 944 03cc 0C9B     		ldr	r3, [sp, #48]	@ tmp194, present_distance
 945 03ce 0B93     		str	r3, [sp, #44]	@ tmp194, last_distance
 188:code/main.c   ****     
 189:code/main.c   ****     // Get present time (unit: second)
 190:code/main.c   ****     if (delta_distance == 0) // if bicycle stopped
 946              		.loc 1 190 0
 947 03d0 0021     		movs	r1, #0	@,
 948 03d2 0098     		ldr	r0, [sp]	@, delta_distance
 949 03d4 FFF7FEFF 		bl	__aeabi_fcmpeq	@
ARM GAS  /tmp/ccONq56c.s 			page 21


 950 03d8 031E     		subs	r3, r0, #0	@ tmp195,,
 951 03da 01D0     		beq	.L80	@,
 191:code/main.c   ****       present_time = last_time;
 952              		.loc 1 191 0
 953 03dc 0F9B     		ldr	r3, [sp, #60]	@ tmp196, last_time
 954 03de 1093     		str	r3, [sp, #64]	@ tmp196, present_time
 955              	.L80:
 192:code/main.c   ****     last_time = present_time;
 956              		.loc 1 192 0
 957 03e0 109B     		ldr	r3, [sp, #64]	@ tmp197, present_time
 958 03e2 0F93     		str	r3, [sp, #60]	@ tmp197, last_time
 193:code/main.c   ****     
 194:code/main.c   ****     // Get speed (unit: km/h)
 195:code/main.c   ****     bool present_speed_valid = true;
 959              		.loc 1 195 0
 960 03e4 1B23     		movs	r3, #27	@ tmp198,
 961 03e6 6B44     		add	r3, r3, sp	@ tmp198,
 962 03e8 0122     		movs	r2, #1	@ tmp199,
 963 03ea 1A70     		strb	r2, [r3]	@ tmp200, present_speed_valid
 196:code/main.c   ****     present_speed = (delta_distance * 3600) / delta_time; // (unit: km/h)
 964              		.loc 1 196 0
 965 03ec 7C49     		ldr	r1, .L99+32	@,
 966 03ee 0098     		ldr	r0, [sp]	@, delta_distance
 967 03f0 FFF7FEFF 		bl	__aeabi_fmul	@
 968 03f4 031C     		adds	r3, r0, #0	@ tmp201,
 969 03f6 0199     		ldr	r1, [sp, #4]	@, delta_time
 970 03f8 181C     		adds	r0, r3, #0	@, D.4547
 971 03fa FFF7FEFF 		bl	__aeabi_fdiv	@
 972 03fe 031C     		adds	r3, r0, #0	@ tmp202,
 973 0400 0993     		str	r3, [sp, #36]	@ tmp202, present_speed
 197:code/main.c   ****     if (present_speed > 99.99)
 974              		.loc 1 197 0
 975 0402 0998     		ldr	r0, [sp, #36]	@, present_speed
 976 0404 FFF7FEFF 		bl	__aeabi_f2d	@
 977 0408 724A     		ldr	r2, .L99+20	@,
 978 040a 734B     		ldr	r3, .L99+24	@,
 979 040c FFF7FEFF 		bl	__aeabi_dcmpgt	@
 980 0410 031E     		subs	r3, r0, #0	@ tmp203,,
 981 0412 01D0     		beq	.L82	@,
 198:code/main.c   ****       present_speed =  99.99;
 982              		.loc 1 198 0
 983 0414 714B     		ldr	r3, .L99+28	@ tmp204,
 984 0416 0993     		str	r3, [sp, #36]	@ tmp204, present_speed
 985              	.L82:
 199:code/main.c   ****     if ((uint32_t)last_speed_1 == (uint32_t)last_speed_2){ // ingore unwanted jitter of speed
 986              		.loc 1 199 0
 987 0418 0898     		ldr	r0, [sp, #32]	@, last_speed_1
 988 041a FFF7FEFF 		bl	__aeabi_f2uiz	@
 989 041e 0400     		movs	r4, r0	@ D.4546,
 990 0420 0798     		ldr	r0, [sp, #28]	@, last_speed_2
 991 0422 FFF7FEFF 		bl	__aeabi_f2uiz	@
 992 0426 0300     		movs	r3, r0	@ D.4546,
 993 0428 9C42     		cmp	r4, r3	@ D.4546, D.4546
 994 042a 0ED1     		bne	.L84	@,
 200:code/main.c   ****       if ((uint32_t)present_speed != (uint32_t)last_speed_1)
 995              		.loc 1 200 0
 996 042c 0998     		ldr	r0, [sp, #36]	@, present_speed
ARM GAS  /tmp/ccONq56c.s 			page 22


 997 042e FFF7FEFF 		bl	__aeabi_f2uiz	@
 998 0432 0400     		movs	r4, r0	@ D.4546,
 999 0434 0898     		ldr	r0, [sp, #32]	@, last_speed_1
 1000 0436 FFF7FEFF 		bl	__aeabi_f2uiz	@
 1001 043a 0300     		movs	r3, r0	@ D.4546,
 1002 043c 9C42     		cmp	r4, r3	@ D.4546, D.4546
 1003 043e 10D0     		beq	.L86	@,
 201:code/main.c   ****         present_speed_valid = false;
 1004              		.loc 1 201 0
 1005 0440 1B23     		movs	r3, #27	@ tmp205,
 1006 0442 6B44     		add	r3, r3, sp	@ tmp205,
 1007 0444 0022     		movs	r2, #0	@ tmp206,
 1008 0446 1A70     		strb	r2, [r3]	@ tmp207, present_speed_valid
 1009 0448 0BE0     		b	.L86	@
 1010              	.L84:
 202:code/main.c   ****     }
 203:code/main.c   ****     else if ((uint32_t)present_speed == (uint32_t)last_speed_2)
 1011              		.loc 1 203 0
 1012 044a 0998     		ldr	r0, [sp, #36]	@, present_speed
 1013 044c FFF7FEFF 		bl	__aeabi_f2uiz	@
 1014 0450 0400     		movs	r4, r0	@ D.4546,
 1015 0452 0798     		ldr	r0, [sp, #28]	@, last_speed_2
 1016 0454 FFF7FEFF 		bl	__aeabi_f2uiz	@
 1017 0458 0300     		movs	r3, r0	@ D.4546,
 1018 045a 9C42     		cmp	r4, r3	@ D.4546, D.4546
 1019 045c 01D1     		bne	.L86	@,
 204:code/main.c   ****       last_speed_1 = present_speed;
 1020              		.loc 1 204 0
 1021 045e 099B     		ldr	r3, [sp, #36]	@ tmp208, present_speed
 1022 0460 0893     		str	r3, [sp, #32]	@ tmp208, last_speed_1
 1023              	.L86:
 205:code/main.c   ****     last_speed_2 = last_speed_1;
 1024              		.loc 1 205 0
 1025 0462 089B     		ldr	r3, [sp, #32]	@ tmp209, last_speed_1
 1026 0464 0793     		str	r3, [sp, #28]	@ tmp209, last_speed_2
 206:code/main.c   ****     last_speed_1 = present_speed;
 1027              		.loc 1 206 0
 1028 0466 099B     		ldr	r3, [sp, #36]	@ tmp210, present_speed
 1029 0468 0893     		str	r3, [sp, #32]	@ tmp210, last_speed_1
 207:code/main.c   ****     if (!present_speed_valid)
 1030              		.loc 1 207 0
 1031 046a 1B23     		movs	r3, #27	@ tmp211,
 1032 046c 6B44     		add	r3, r3, sp	@ tmp211,
 1033 046e 1B78     		ldrb	r3, [r3]	@ tmp212, present_speed_valid
 1034 0470 0122     		movs	r2, #1	@ tmp214,
 1035 0472 5340     		eors	r3, r2	@ tmp213, tmp214
 1036 0474 DBB2     		uxtb	r3, r3	@ D.4544, tmp213
 1037 0476 002B     		cmp	r3, #0	@ D.4544,
 1038 0478 01D0     		beq	.L87	@,
 208:code/main.c   ****       present_speed = last_speed_2;
 1039              		.loc 1 208 0
 1040 047a 079B     		ldr	r3, [sp, #28]	@ tmp215, last_speed_2
 1041 047c 0993     		str	r3, [sp, #36]	@ tmp215, present_speed
 1042              	.L87:
 209:code/main.c   **** 
 210:code/main.c   ****     // Get cadence (unit: round/second)
 211:code/main.c   ****     long_delta_time = long_delta_time + delta_time;
ARM GAS  /tmp/ccONq56c.s 			page 23


 1043              		.loc 1 211 0
 1044 047e 0199     		ldr	r1, [sp, #4]	@, delta_time
 1045 0480 0A98     		ldr	r0, [sp, #40]	@, long_delta_time
 1046 0482 FFF7FEFF 		bl	__aeabi_fadd	@
 1047 0486 031C     		adds	r3, r0, #0	@ tmp216,
 1048 0488 0A93     		str	r3, [sp, #40]	@ tmp216, long_delta_time
 212:code/main.c   ****     long_delta_crank = long_delta_crank + delta_crank;
 1049              		.loc 1 212 0
 1050 048a 0E9A     		ldr	r2, [sp, #56]	@ tmp218, long_delta_crank
 1051 048c 039B     		ldr	r3, [sp, #12]	@ tmp219, delta_crank
 1052 048e D318     		adds	r3, r2, r3	@ tmp217, tmp218, tmp219
 1053 0490 0E93     		str	r3, [sp, #56]	@ tmp217, long_delta_crank
 213:code/main.c   ****     if (long_delta_time > 10){
 1054              		.loc 1 213 0
 1055 0492 5449     		ldr	r1, .L99+36	@,
 1056 0494 0A98     		ldr	r0, [sp, #40]	@, long_delta_time
 1057 0496 FFF7FEFF 		bl	__aeabi_fcmpgt	@
 1058 049a 031E     		subs	r3, r0, #0	@ tmp220,,
 1059 049c 27D0     		beq	.L88	@,
 214:code/main.c   ****       present_cadence = (uint32_t) (long_delta_crank * 60 / long_delta_time);
 1060              		.loc 1 214 0
 1061 049e 0E9A     		ldr	r2, [sp, #56]	@ tmp221, long_delta_crank
 1062 04a0 1300     		movs	r3, r2	@ tmp222, tmp221
 1063 04a2 1B01     		lsls	r3, r3, #4	@ tmp222, tmp222,
 1064 04a4 9B1A     		subs	r3, r3, r2	@ tmp222, tmp222, tmp221
 1065 04a6 9B00     		lsls	r3, r3, #2	@ tmp223, tmp222,
 1066 04a8 1800     		movs	r0, r3	@, D.4546
 1067 04aa FFF7FEFF 		bl	__aeabi_ui2f	@
 1068 04ae 031C     		adds	r3, r0, #0	@ D.4547,
 1069 04b0 0A99     		ldr	r1, [sp, #40]	@, long_delta_time
 1070 04b2 181C     		adds	r0, r3, #0	@, D.4547
 1071 04b4 FFF7FEFF 		bl	__aeabi_fdiv	@
 1072 04b8 031C     		adds	r3, r0, #0	@ tmp224,
 1073 04ba 181C     		adds	r0, r3, #0	@, D.4547
 1074 04bc FFF7FEFF 		bl	__aeabi_f2uiz	@
 1075 04c0 0300     		movs	r3, r0	@ tmp225,
 1076 04c2 0D93     		str	r3, [sp, #52]	@ tmp225, present_cadence
 215:code/main.c   ****       present_cadence = (present_cadence / 5) * 5; // Precision: 5 round (unit: round/second)
 1077              		.loc 1 215 0
 1078 04c4 0D9B     		ldr	r3, [sp, #52]	@ tmp226, present_cadence
 1079 04c6 0521     		movs	r1, #5	@,
 1080 04c8 1800     		movs	r0, r3	@, tmp226
 1081 04ca FFF7FEFF 		bl	__aeabi_uidiv	@
 1082 04ce 0300     		movs	r3, r0	@ tmp229,
 1083 04d0 1A00     		movs	r2, r3	@ D.4546, tmp229
 1084 04d2 1300     		movs	r3, r2	@ tmp230, D.4546
 1085 04d4 9B00     		lsls	r3, r3, #2	@ tmp230, tmp230,
 1086 04d6 9B18     		adds	r3, r3, r2	@ tmp231, tmp230, D.4546
 1087 04d8 0D93     		str	r3, [sp, #52]	@ tmp231, present_cadence
 216:code/main.c   ****       long_delta_time = 0;
 1088              		.loc 1 216 0
 1089 04da 0023     		movs	r3, #0	@ tmp232,
 1090 04dc 0A93     		str	r3, [sp, #40]	@ tmp232, long_delta_time
 217:code/main.c   ****       long_delta_crank = 0;
 1091              		.loc 1 217 0
 1092 04de 0023     		movs	r3, #0	@ tmp233,
 1093 04e0 0E93     		str	r3, [sp, #56]	@ tmp233, long_delta_crank
ARM GAS  /tmp/ccONq56c.s 			page 24


 218:code/main.c   ****       if (present_cadence > 999)
 1094              		.loc 1 218 0
 1095 04e2 0D9B     		ldr	r3, [sp, #52]	@ tmp234, present_cadence
 1096 04e4 404A     		ldr	r2, .L99+40	@ tmp235,
 1097 04e6 9342     		cmp	r3, r2	@ tmp234, tmp235
 1098 04e8 01D9     		bls	.L88	@,
 219:code/main.c   ****         present_cadence = 999;
 1099              		.loc 1 219 0
 1100 04ea 3F4B     		ldr	r3, .L99+40	@ tmp236,
 1101 04ec 0D93     		str	r3, [sp, #52]	@ tmp236, present_cadence
 1102              	.L88:
 220:code/main.c   ****     }
 221:code/main.c   **** 
 222:code/main.c   ****     // 3. Refresh Segment
 223:code/main.c   **** 
 224:code/main.c   ****     uint32_t display_int, display_frac; //  This coding is to save more energy
 225:code/main.c   ****     if (mode == 0xA){
 1103              		.loc 1 225 0
 1104 04ee 129B     		ldr	r3, [sp, #72]	@ tmp237, mode
 1105 04f0 0A2B     		cmp	r3, #10	@ tmp237,
 1106 04f2 18D1     		bne	.L90	@,
 226:code/main.c   ****       display_int  = (uint32_t) present_distance; // km
 1107              		.loc 1 226 0
 1108 04f4 0C98     		ldr	r0, [sp, #48]	@, present_distance
 1109 04f6 FFF7FEFF 		bl	__aeabi_f2uiz	@
 1110 04fa 0300     		movs	r3, r0	@ tmp238,
 1111 04fc 0593     		str	r3, [sp, #20]	@ tmp238, display_int
 227:code/main.c   ****       display_frac = (uint32_t) ((present_distance - display_int) * 100); // km
 1112              		.loc 1 227 0
 1113 04fe 0598     		ldr	r0, [sp, #20]	@, display_int
 1114 0500 FFF7FEFF 		bl	__aeabi_ui2f	@
 1115 0504 031C     		adds	r3, r0, #0	@ D.4547,
 1116 0506 191C     		adds	r1, r3, #0	@, D.4547
 1117 0508 0C98     		ldr	r0, [sp, #48]	@, present_distance
 1118 050a FFF7FEFF 		bl	__aeabi_fsub	@
 1119 050e 031C     		adds	r3, r0, #0	@ tmp239,
 1120 0510 3649     		ldr	r1, .L99+44	@,
 1121 0512 181C     		adds	r0, r3, #0	@, D.4547
 1122 0514 FFF7FEFF 		bl	__aeabi_fmul	@
 1123 0518 031C     		adds	r3, r0, #0	@ tmp240,
 1124 051a 181C     		adds	r0, r3, #0	@, D.4547
 1125 051c FFF7FEFF 		bl	__aeabi_f2uiz	@
 1126 0520 0300     		movs	r3, r0	@ tmp241,
 1127 0522 0493     		str	r3, [sp, #16]	@ tmp241, display_frac
 1128 0524 3BE0     		b	.L91	@
 1129              	.L90:
 228:code/main.c   ****     }
 229:code/main.c   ****     else if (mode == 0xB){
 1130              		.loc 1 229 0
 1131 0526 129B     		ldr	r3, [sp, #72]	@ tmp242, mode
 1132 0528 0B2B     		cmp	r3, #11	@ tmp242,
 1133 052a 15D1     		bne	.L92	@,
 230:code/main.c   ****       display_int  = present_time / 3600; // hour
 1134              		.loc 1 230 0
 1135 052c 109A     		ldr	r2, [sp, #64]	@ tmp244, present_time
 1136 052e E123     		movs	r3, #225	@ tmp268,
 1137 0530 1901     		lsls	r1, r3, #4	@, tmp268,
ARM GAS  /tmp/ccONq56c.s 			page 25


 1138 0532 1000     		movs	r0, r2	@, tmp244
 1139 0534 FFF7FEFF 		bl	__aeabi_uidiv	@
 1140 0538 0300     		movs	r3, r0	@ tmp247,
 1141 053a 0593     		str	r3, [sp, #20]	@ tmp247, display_int
 231:code/main.c   ****       display_frac = (present_time % 3600) / 60; // minute
 1142              		.loc 1 231 0
 1143 053c 109A     		ldr	r2, [sp, #64]	@ tmp248, present_time
 1144 053e E123     		movs	r3, #225	@ tmp269,
 1145 0540 1901     		lsls	r1, r3, #4	@, tmp269,
 1146 0542 1000     		movs	r0, r2	@, tmp248
 1147 0544 FFF7FEFF 		bl	__aeabi_uidivmod	@
 1148 0548 0B00     		movs	r3, r1	@ tmp253,
 1149 054a 3C21     		movs	r1, #60	@,
 1150 054c 1800     		movs	r0, r3	@, D.4546
 1151 054e FFF7FEFF 		bl	__aeabi_uidiv	@
 1152 0552 0300     		movs	r3, r0	@ tmp256,
 1153 0554 0493     		str	r3, [sp, #16]	@ tmp256, display_frac
 1154 0556 22E0     		b	.L91	@
 1155              	.L92:
 232:code/main.c   ****     }
 233:code/main.c   ****     else if (mode == 0xC){
 1156              		.loc 1 233 0
 1157 0558 129B     		ldr	r3, [sp, #72]	@ tmp257, mode
 1158 055a 0C2B     		cmp	r3, #12	@ tmp257,
 1159 055c 18D1     		bne	.L93	@,
 234:code/main.c   ****       display_int  = (uint32_t) present_speed; // km/h
 1160              		.loc 1 234 0
 1161 055e 0998     		ldr	r0, [sp, #36]	@, present_speed
 1162 0560 FFF7FEFF 		bl	__aeabi_f2uiz	@
 1163 0564 0300     		movs	r3, r0	@ tmp258,
 1164 0566 0593     		str	r3, [sp, #20]	@ tmp258, display_int
 235:code/main.c   ****       display_frac = (uint32_t) ((present_speed - display_int) * 100); // km/h
 1165              		.loc 1 235 0
 1166 0568 0598     		ldr	r0, [sp, #20]	@, display_int
 1167 056a FFF7FEFF 		bl	__aeabi_ui2f	@
 1168 056e 031C     		adds	r3, r0, #0	@ D.4547,
 1169 0570 191C     		adds	r1, r3, #0	@, D.4547
 1170 0572 0998     		ldr	r0, [sp, #36]	@, present_speed
 1171 0574 FFF7FEFF 		bl	__aeabi_fsub	@
 1172 0578 031C     		adds	r3, r0, #0	@ tmp259,
 1173 057a 1C49     		ldr	r1, .L99+44	@,
 1174 057c 181C     		adds	r0, r3, #0	@, D.4547
 1175 057e FFF7FEFF 		bl	__aeabi_fmul	@
 1176 0582 031C     		adds	r3, r0, #0	@ tmp260,
 1177 0584 181C     		adds	r0, r3, #0	@, D.4547
 1178 0586 FFF7FEFF 		bl	__aeabi_f2uiz	@
 1179 058a 0300     		movs	r3, r0	@ tmp261,
 1180 058c 0493     		str	r3, [sp, #16]	@ tmp261, display_frac
 1181 058e 06E0     		b	.L91	@
 1182              	.L93:
 236:code/main.c   ****     }
 237:code/main.c   ****     else if (mode == 0xD){
 1183              		.loc 1 237 0
 1184 0590 129B     		ldr	r3, [sp, #72]	@ tmp262, mode
 1185 0592 0D2B     		cmp	r3, #13	@ tmp262,
 1186 0594 03D1     		bne	.L91	@,
 238:code/main.c   ****       display_int  = present_cadence; // r/s
ARM GAS  /tmp/ccONq56c.s 			page 26


 1187              		.loc 1 238 0
 1188 0596 0D9B     		ldr	r3, [sp, #52]	@ tmp263, present_cadence
 1189 0598 0593     		str	r3, [sp, #20]	@ tmp263, display_int
 239:code/main.c   ****       display_frac = 0; // nothing to show
 1190              		.loc 1 239 0
 1191 059a 0023     		movs	r3, #0	@ tmp264,
 1192 059c 0493     		str	r3, [sp, #16]	@ tmp264, display_frac
 1193              	.L91:
 240:code/main.c   ****     }
 241:code/main.c   **** 
 242:code/main.c   ****     display_segment(mode, int2bcd(display_int), int2bcd(display_frac));
 1194              		.loc 1 242 0
 1195 059e 059B     		ldr	r3, [sp, #20]	@ tmp265, display_int
 1196 05a0 1800     		movs	r0, r3	@, tmp265
 1197 05a2 FFF7FEFF 		bl	int2bcd	@
 1198 05a6 0400     		movs	r4, r0	@ D.4546,
 1199 05a8 049B     		ldr	r3, [sp, #16]	@ tmp266, display_frac
 1200 05aa 1800     		movs	r0, r3	@, tmp266
 1201 05ac FFF7FEFF 		bl	int2bcd	@
 1202 05b0 0200     		movs	r2, r0	@ D.4546,
 1203 05b2 129B     		ldr	r3, [sp, #72]	@ tmp267, mode
 1204 05b4 2100     		movs	r1, r4	@, D.4546
 1205 05b6 1800     		movs	r0, r3	@, tmp267
 1206 05b8 FFF7FEFF 		bl	display_segment	@
 1207              	.LBE2:
 243:code/main.c   **** 
 244:code/main.c   ****     // 4. Furture Design
 245:code/main.c   **** 
 246:code/main.c   ****     // check_speed();
 247:code/main.c   ****     // get_oled_image(delta_distance, present_speed, ave_speed, energe, max_speed, delta_time, delt
 248:code/main.c   ****     // display_oled();
 249:code/main.c   **** 
 250:code/main.c   ****   }
 1208              		.loc 1 250 0
 1209 05bc 8EE6     		b	.L94	@
 1210              	.L100:
 1211 05be C046     		.align	2
 1212              	.L99:
 1213 05c0 58080000 		.word	2136
 1214 05c4 00007A44 		.word	1148846080
 1215 05c8 00247449 		.word	1232348160
 1216 05cc 7B14AE47 		.word	1202590843
 1217 05d0 E17A843F 		.word	1065646817
 1218 05d4 8FC2F528 		.word	687194767
 1219 05d8 5CFF5840 		.word	1079574364
 1220 05dc E1FAC742 		.word	1120402145
 1221 05e0 00006145 		.word	1163984896
 1222 05e4 00002041 		.word	1092616192
 1223 05e8 E7030000 		.word	999
 1224 05ec 0000C842 		.word	1120403456
 1225              		.cfi_endproc
 1226              	.LFE16:
 1227              		.size	main, .-main
 1228              	.Letext0:
 1229              		.file 2 "/srv/gcc-arm-none-eabi-5_4-2016q3/arm-none-eabi/include/machine/_default_types.h"
 1230              		.file 3 "/srv/gcc-arm-none-eabi-5_4-2016q3/arm-none-eabi/include/sys/_stdint.h"